
example/example.elf:     file format elf32-littlearm


Disassembly of section .text:

00000410 <__do_global_dtors_aux>:
     410:	b510      	push	{r4, lr}
     412:	4c05      	ldr	r4, [pc, #20]	; (428 <__UVISOR_FLASH_OFFSET+0x18>)
     414:	7823      	ldrb	r3, [r4, #0]
     416:	b933      	cbnz	r3, 426 <__do_global_dtors_aux+0x16>
     418:	4b04      	ldr	r3, [pc, #16]	; (42c <__UVISOR_FLASH_OFFSET+0x1c>)
     41a:	b113      	cbz	r3, 422 <__do_global_dtors_aux+0x12>
     41c:	4804      	ldr	r0, [pc, #16]	; (430 <__UVISOR_FLASH_OFFSET+0x20>)
     41e:	f3af 8000 	nop.w
     422:	2301      	movs	r3, #1
     424:	7023      	strb	r3, [r4, #0]
     426:	bd10      	pop	{r4, pc}
     428:	20000b80 	.word	0x20000b80
     42c:	00000000 	.word	0x00000000
     430:	00012ce4 	.word	0x00012ce4

00000434 <frame_dummy>:
     434:	4b0c      	ldr	r3, [pc, #48]	; (468 <frame_dummy+0x34>)
     436:	b143      	cbz	r3, 44a <frame_dummy+0x16>
     438:	480c      	ldr	r0, [pc, #48]	; (46c <frame_dummy+0x38>)
     43a:	490d      	ldr	r1, [pc, #52]	; (470 <frame_dummy+0x3c>)
     43c:	b510      	push	{r4, lr}
     43e:	f3af 8000 	nop.w
     442:	480c      	ldr	r0, [pc, #48]	; (474 <frame_dummy+0x40>)
     444:	6803      	ldr	r3, [r0, #0]
     446:	b923      	cbnz	r3, 452 <frame_dummy+0x1e>
     448:	bd10      	pop	{r4, pc}
     44a:	480a      	ldr	r0, [pc, #40]	; (474 <frame_dummy+0x40>)
     44c:	6803      	ldr	r3, [r0, #0]
     44e:	b933      	cbnz	r3, 45e <frame_dummy+0x2a>
     450:	4770      	bx	lr
     452:	4b09      	ldr	r3, [pc, #36]	; (478 <frame_dummy+0x44>)
     454:	2b00      	cmp	r3, #0
     456:	d0f7      	beq.n	448 <frame_dummy+0x14>
     458:	e8bd 4010 	ldmia.w	sp!, {r4, lr}
     45c:	4718      	bx	r3
     45e:	4b06      	ldr	r3, [pc, #24]	; (478 <frame_dummy+0x44>)
     460:	2b00      	cmp	r3, #0
     462:	d0f5      	beq.n	450 <frame_dummy+0x1c>
     464:	4718      	bx	r3
     466:	bf00      	nop
     468:	00000000 	.word	0x00000000
     46c:	00012ce4 	.word	0x00012ce4
     470:	20000b84 	.word	0x20000b84
     474:	20000b6c 	.word	0x20000b6c
     478:	00000000 	.word	0x00000000

0000047c <_mainCRTStartup>:
     47c:	4b15      	ldr	r3, [pc, #84]	; (4d4 <_mainCRTStartup+0x58>)
     47e:	2b00      	cmp	r3, #0
     480:	bf08      	it	eq
     482:	4b13      	ldreq	r3, [pc, #76]	; (4d0 <_mainCRTStartup+0x54>)
     484:	469d      	mov	sp, r3
     486:	f5a3 3a80 	sub.w	sl, r3, #65536	; 0x10000
     48a:	2100      	movs	r1, #0
     48c:	468b      	mov	fp, r1
     48e:	460f      	mov	r7, r1
     490:	4813      	ldr	r0, [pc, #76]	; (4e0 <_mainCRTStartup+0x64>)
     492:	4a14      	ldr	r2, [pc, #80]	; (4e4 <_mainCRTStartup+0x68>)
     494:	1a12      	subs	r2, r2, r0
     496:	f00b f805 	bl	b4a4 <memset>
     49a:	4b0f      	ldr	r3, [pc, #60]	; (4d8 <_mainCRTStartup+0x5c>)
     49c:	2b00      	cmp	r3, #0
     49e:	d000      	beq.n	4a2 <_mainCRTStartup+0x26>
     4a0:	4798      	blx	r3
     4a2:	4b0e      	ldr	r3, [pc, #56]	; (4dc <_mainCRTStartup+0x60>)
     4a4:	2b00      	cmp	r3, #0
     4a6:	d000      	beq.n	4aa <_mainCRTStartup+0x2e>
     4a8:	4798      	blx	r3
     4aa:	2000      	movs	r0, #0
     4ac:	2100      	movs	r1, #0
     4ae:	0004      	movs	r4, r0
     4b0:	000d      	movs	r5, r1
     4b2:	480d      	ldr	r0, [pc, #52]	; (4e8 <_mainCRTStartup+0x6c>)
     4b4:	2800      	cmp	r0, #0
     4b6:	d002      	beq.n	4be <_mainCRTStartup+0x42>
     4b8:	480c      	ldr	r0, [pc, #48]	; (4ec <_mainCRTStartup+0x70>)
     4ba:	f003 fafd 	bl	3ab8 <__wrap_atexit>
     4be:	f00a fc01 	bl	acc4 <__libc_init_array>
     4c2:	0020      	movs	r0, r4
     4c4:	0029      	movs	r1, r5
     4c6:	f003 fea7 	bl	4218 <__wrap_main>
     4ca:	f003 faeb 	bl	3aa4 <__wrap_exit>
     4ce:	bf00      	nop
     4d0:	00080000 	.word	0x00080000
     4d4:	20030000 	.word	0x20030000
     4d8:	00000000 	.word	0x00000000
     4dc:	000042d9 	.word	0x000042d9
     4e0:	20000b80 	.word	0x20000b80
     4e4:	20003050 	.word	0x20003050
     4e8:	00003ab9 	.word	0x00003ab9
     4ec:	00000000 	.word	0x00000000

000004f0 <HardFault_Handler>:
     4f0:	f04f 0310 	mov.w	r3, #16
     4f4:	f000 b80c 	b.w	510 <Fault_Handler>

000004f8 <MemManage_Handler>:
     4f8:	f04f 0320 	mov.w	r3, #32
     4fc:	f000 b808 	b.w	510 <Fault_Handler>

00000500 <BusFault_Handler>:
     500:	f04f 0330 	mov.w	r3, #48	; 0x30
     504:	f000 b804 	b.w	510 <Fault_Handler>

00000508 <UsageFault_Handler>:
     508:	f04f 0340 	mov.w	r3, #64	; 0x40
     50c:	f000 b800 	b.w	510 <Fault_Handler>

00000510 <Fault_Handler>:
     510:	f3ef 8008 	mrs	r0, MSP
     514:	f04f 0104 	mov.w	r1, #4
     518:	4672      	mov	r2, lr
     51a:	420a      	tst	r2, r1
     51c:	d001      	beq.n	522 <Fault_Handler_Continue>
     51e:	f3ef 8009 	mrs	r0, PSP

00000522 <Fault_Handler_Continue>:
     522:	469c      	mov	ip, r3
     524:	4924      	ldr	r1, [pc, #144]	; (5b8 <Fault_Handler_Continue2+0x2e>)
     526:	6802      	ldr	r2, [r0, #0]
     528:	600a      	str	r2, [r1, #0]
     52a:	3104      	adds	r1, #4
     52c:	6842      	ldr	r2, [r0, #4]
     52e:	600a      	str	r2, [r1, #0]
     530:	3104      	adds	r1, #4
     532:	6882      	ldr	r2, [r0, #8]
     534:	600a      	str	r2, [r1, #0]
     536:	3104      	adds	r1, #4
     538:	68c2      	ldr	r2, [r0, #12]
     53a:	600a      	str	r2, [r1, #0]
     53c:	3104      	adds	r1, #4
     53e:	c1f0      	stmia	r1!, {r4, r5, r6, r7}
     540:	4647      	mov	r7, r8
     542:	600f      	str	r7, [r1, #0]
     544:	3104      	adds	r1, #4
     546:	464f      	mov	r7, r9
     548:	600f      	str	r7, [r1, #0]
     54a:	3104      	adds	r1, #4
     54c:	4657      	mov	r7, sl
     54e:	600f      	str	r7, [r1, #0]
     550:	3104      	adds	r1, #4
     552:	465f      	mov	r7, fp
     554:	600f      	str	r7, [r1, #0]
     556:	3104      	adds	r1, #4
     558:	6902      	ldr	r2, [r0, #16]
     55a:	600a      	str	r2, [r1, #0]
     55c:	3108      	adds	r1, #8
     55e:	6942      	ldr	r2, [r0, #20]
     560:	600a      	str	r2, [r1, #0]
     562:	3104      	adds	r1, #4
     564:	6982      	ldr	r2, [r0, #24]
     566:	600a      	str	r2, [r1, #0]
     568:	3104      	adds	r1, #4
     56a:	69c2      	ldr	r2, [r0, #28]
     56c:	600a      	str	r2, [r1, #0]
     56e:	3104      	adds	r1, #4
     570:	4603      	mov	r3, r0
     572:	3320      	adds	r3, #32
     574:	f44f 7600 	mov.w	r6, #512	; 0x200
     578:	4232      	tst	r2, r6
     57a:	d000      	beq.n	57e <Fault_Handler_Continue1>
     57c:	3304      	adds	r3, #4

0000057e <Fault_Handler_Continue1>:
     57e:	4675      	mov	r5, lr
     580:	f04f 0610 	mov.w	r6, #16
     584:	4235      	tst	r5, r6
     586:	d100      	bne.n	58a <Fault_Handler_Continue2>
     588:	3348      	adds	r3, #72	; 0x48

0000058a <Fault_Handler_Continue2>:
     58a:	460c      	mov	r4, r1
     58c:	3c10      	subs	r4, #16
     58e:	6023      	str	r3, [r4, #0]
     590:	f3ef 8209 	mrs	r2, PSP
     594:	600a      	str	r2, [r1, #0]
     596:	3104      	adds	r1, #4
     598:	f3ef 8208 	mrs	r2, MSP
     59c:	600a      	str	r2, [r1, #0]
     59e:	3104      	adds	r1, #4
     5a0:	4672      	mov	r2, lr
     5a2:	600a      	str	r2, [r1, #0]
     5a4:	3104      	adds	r1, #4
     5a6:	f3ef 8214 	mrs	r2, CONTROL
     5aa:	600a      	str	r2, [r1, #0]
     5ac:	4b03      	ldr	r3, [pc, #12]	; (5bc <Fault_Handler_Continue2+0x32>)
     5ae:	4660      	mov	r0, ip
     5b0:	4901      	ldr	r1, [pc, #4]	; (5b8 <Fault_Handler_Continue2+0x2e>)
     5b2:	4a03      	ldr	r2, [pc, #12]	; (5c0 <Fault_Handler_Continue2+0x36>)
     5b4:	4798      	blx	r3
     5b6:	e7fe      	b.n	5b6 <Fault_Handler_Continue2+0x2c>
     5b8:	20001e00 	.word	0x20001e00
     5bc:	00003eed 	.word	0x00003eed
     5c0:	20000110 	.word	0x20000110

000005c4 <SVC_Handler>:
     5c4:	f01e 0f04 	tst.w	lr, #4
     5c8:	bf0c      	ite	eq
     5ca:	f3ef 8008 	mrseq	r0, MSP
     5ce:	f3ef 8009 	mrsne	r0, PSP
     5d2:	6981      	ldr	r1, [r0, #24]
     5d4:	f811 1c02 	ldrb.w	r1, [r1, #-2]
     5d8:	bbb9      	cbnz	r1, 64a <SVC_User>
     5da:	b501      	push	{r0, lr}
     5dc:	e890 100f 	ldmia.w	r0, {r0, r1, r2, r3, ip}
     5e0:	47e0      	blx	ip
     5e2:	e8bd 5000 	ldmia.w	sp!, {ip, lr}
     5e6:	e88c 0003 	stmia.w	ip, {r0, r1}

000005ea <SVC_Context>:
     5ea:	4b27      	ldr	r3, [pc, #156]	; (688 <SysTick_Handler+0x12>)
     5ec:	e893 0006 	ldmia.w	r3, {r1, r2}
     5f0:	4291      	cmp	r1, r2
     5f2:	bf08      	it	eq
     5f4:	4770      	bxeq	lr
     5f6:	b941      	cbnz	r1, 60a <SVC_ContextSave>
     5f8:	f01e 0f10 	tst.w	lr, #16
     5fc:	d110      	bne.n	620 <SVC_ContextSwitch>
     5fe:	4923      	ldr	r1, [pc, #140]	; (68c <SysTick_Handler+0x16>)
     600:	6808      	ldr	r0, [r1, #0]
     602:	f020 0001 	bic.w	r0, r0, #1
     606:	6008      	str	r0, [r1, #0]
     608:	e00a      	b.n	620 <SVC_ContextSwitch>

0000060a <SVC_ContextSave>:
     60a:	e92c 0ff0 	stmdb	ip!, {r4, r5, r6, r7, r8, r9, sl, fp}
     60e:	f01e 0f10 	tst.w	lr, #16
     612:	bf08      	it	eq
     614:	ed2c 8a10 	vstmdbeq	ip!, {s16-s31}
     618:	f8c1 c038 	str.w	ip, [r1, #56]	; 0x38
     61c:	f881 e022 	strb.w	lr, [r1, #34]	; 0x22

00000620 <SVC_ContextSwitch>:
        /* The call to thread_switch_helper can clobber R2 and R3, but we don't
         * want to clobber R2 or R3. We can't save R2 and R3 to the stack (as
         * the stack we save them onto is likely to be inaccessible after the
         * call to thread_switch_helper). So, we just re-obtain the values from
         * osRtxInfo again. */
        BL       thread_switch_helper
     620:	f006 fd1a 	bl	7058 <thread_switch_helper>
        LDR      R3,=osRtxInfo+I_T_RUN_OFS // Load address of osRtxInfo.run
     624:	4b18      	ldr	r3, [pc, #96]	; (688 <SysTick_Handler+0x12>)
        LDM      R3,{R1,R2}             // Load osRtxInfo.thread.run: curr & next
     626:	e893 0006 	ldmia.w	r3, {r1, r2}

        STR      R2,[R3]                // osRtxInfo.thread.run: curr = next
     62a:	601a      	str	r2, [r3, #0]

0000062c <SVC_ContextRestore>:

SVC_ContextRestore:
        LDRB     R1,[R2,#TCB_SF_OFS]    // Load stack frame information
     62c:	f892 1022 	ldrb.w	r1, [r2, #34]	; 0x22
        LDR      R0,[R2,#TCB_SP_OFS]    // Load SP
     630:	6b90      	ldr	r0, [r2, #56]	; 0x38
        ORR      LR,R1,#0xFFFFFF00      // Set EXC_RETURN
     632:	f061 0eff 	orn	lr, r1, #255	; 0xff

#ifdef __FPU_PRESENT
        TST      LR,#0x10               // Check if extended stack frame
     636:	f01e 0f10 	tst.w	lr, #16
        IT       EQ
     63a:	bf08      	it	eq
        VLDMIAEQ R0!,{S16-S31}          //  Restore VFP S16..S31
     63c:	ecb0 8a10 	vldmiaeq	r0!, {s16-s31}
#endif
        LDMIA    R0!,{R4-R11}           // Restore R4..R11
     640:	e8b0 0ff0 	ldmia.w	r0!, {r4, r5, r6, r7, r8, r9, sl, fp}
        MSR      PSP,R0                 // Set PSP
     644:	f380 8809 	msr	PSP, r0

00000648 <SVC_Exit>:
#ifdef FEATURE_UVISOR
        CPSIE I                         // The PSP has been set. Re-enable interrupts.
#endif

SVC_Exit:
        BX       LR                     // Exit from handler
     648:	4770      	bx	lr

0000064a <SVC_User>:

SVC_User:
        LDR      R2,=osRtxUserSVC       // Load address of SVC table
     64a:	4a11      	ldr	r2, [pc, #68]	; (690 <SysTick_Handler+0x1a>)
        LDR      R3,[R2]                // Load SVC maximum number
     64c:	6813      	ldr	r3, [r2, #0]
        CMP      R1,R3                  // Check SVC number range
     64e:	4299      	cmp	r1, r3
        BHI      SVC_Exit               // Branch if out of range
     650:	d8fa      	bhi.n	648 <SVC_Exit>

        PUSH     {R0,LR}                // Save SP and EXC_RETURN
     652:	b501      	push	{r0, lr}
        LDR      R12,[R2,R1,LSL #2]     // Load address of SVC function
     654:	f852 c021 	ldr.w	ip, [r2, r1, lsl #2]
        LDM      R0,{R0-R3}             // Load function parameters from stack
     658:	c80f      	ldmia	r0, {r0, r1, r2, r3}
        BLX      R12                    // Call service function
     65a:	47e0      	blx	ip
        POP      {R12,LR}               // Restore SP and EXC_RETURN
     65c:	e8bd 5000 	ldmia.w	sp!, {ip, lr}
        STR      R0,[R12]               // Store function return value
     660:	f8cc 0000 	str.w	r0, [ip]

        BX       LR                     // Return from handler
     664:	4770      	bx	lr

00000666 <PendSV_Handler>:
        .global  PendSV_Handler
        .fnstart
        .cantunwind
PendSV_Handler:

        PUSH     {R0,LR}                // Save EXC_RETURN
     666:	b501      	push	{r0, lr}
        BL       osRtxPendSV_Handler    // Call osRtxPendSV_Handler
     668:	f006 f930 	bl	68cc <osRtxPendSV_Handler>
        POP      {R0,LR}                // Restore EXC_RETURN
     66c:	e8bd 4001 	ldmia.w	sp!, {r0, lr}
        MRS      R12,PSP
     670:	f3ef 8c09 	mrs	ip, PSP
        B        SVC_Context
     674:	e7b9      	b.n	5ea <SVC_Context>

00000676 <SysTick_Handler>:
        .global  SysTick_Handler
        .fnstart
        .cantunwind
SysTick_Handler:

        PUSH     {R0,LR}                // Save EXC_RETURN
     676:	b501      	push	{r0, lr}
        BL       osRtxTick_Handler      // Call osRtxTick_Handler
     678:	f006 f8c2 	bl	6800 <osRtxTick_Handler>
        POP      {R0,LR}                // Restore EXC_RETURN
     67c:	e8bd 4001 	ldmia.w	sp!, {r0, lr}
        MRS      R12,PSP
     680:	f3ef 8c09 	mrs	ip, PSP
        B        SVC_Context
     684:	e7b1      	b.n	5ea <SVC_Context>
     686:	0000      	.short	0x0000
     688:	20000124 	.word	0x20000124
     68c:	e000ef34 	.word	0xe000ef34
        LDR      R2,=osRtxUserSVC       // Load address of SVC table
     690:	0001262c 	.word	0x0001262c

00000694 <Reset_Handler>:
    .align 2
    .globl   Reset_Handler
    .weak    Reset_Handler
    .type    Reset_Handler, %function
Reset_Handler:
    cpsid   i               /* Mask interrupts */
     694:	b672      	cpsid	i
    .equ    VTOR, 0xE000ED08
    ldr     r0, =VTOR
     696:	4809      	ldr	r0, [pc, #36]	; (6bc <Reset_Handler+0x28>)
    ldr     r1, =__isr_vector
     698:	4909      	ldr	r1, [pc, #36]	; (6c0 <Reset_Handler+0x2c>)
    str     r1, [r0]
     69a:	6001      	str	r1, [r0, #0]
#ifndef __NO_SYSTEM_INIT
    ldr   r0,=SystemInit
     69c:	4809      	ldr	r0, [pc, #36]	; (6c4 <Reset_Handler+0x30>)
    blx   r0
     69e:	4780      	blx	r0
 *      linker script.
 *      __etext: End of code section, i.e., begin of data sections to copy from.
 *      __data_start__/__data_end__: RAM address range that data should be
 *      copied to. Both must be aligned to 4 bytes boundary.  */

    ldr    r1, =__etext
     6a0:	4909      	ldr	r1, [pc, #36]	; (6c8 <Reset_Handler+0x34>)
    ldr    r2, =__data_start__
     6a2:	4a0a      	ldr	r2, [pc, #40]	; (6cc <Reset_Handler+0x38>)
    ldr    r3, =__data_end__
     6a4:	4b0a      	ldr	r3, [pc, #40]	; (6d0 <Reset_Handler+0x3c>)
#if 1
/* Here are two copies of loop implemenations. First one favors code size
 * and the second one favors performance. Default uses the first one.
 * Change to "#if 0" to use the second one */
.LC0:
    cmp     r2, r3
     6a6:	429a      	cmp	r2, r3
    ittt    lt
     6a8:	bfbe      	ittt	lt
    ldrlt   r0, [r1], #4
     6aa:	f851 0b04 	ldrlt.w	r0, [r1], #4
    strlt   r0, [r2], #4
     6ae:	f842 0b04 	strlt.w	r0, [r2], #4
    blt    .LC0
     6b2:	e7f8      	blt.n	6a6 <Reset_Handler+0x12>
    itt    lt
    strlt   r0, [r1], #4
    blt    .LC2
#endif /* __STARTUP_CLEAR_BSS */

    cpsie   i               /* Unmask interrupts */
     6b4:	b662      	cpsie	i
#ifndef __START
#define __START _start
#endif
#ifndef __ATOLLIC__
    ldr   r0,=__START
     6b6:	4807      	ldr	r0, [pc, #28]	; (6d4 <Reset_Handler+0x40>)
    blx   r0
     6b8:	4780      	blx	r0
     6ba:	0000      	.short	0x0000
    ldr     r0, =VTOR
     6bc:	e000ed08 	.word	0xe000ed08
    ldr     r1, =__isr_vector
     6c0:	00000000 	.word	0x00000000
    ldr   r0,=SystemInit
     6c4:	00007fc9 	.word	0x00007fc9
    ldr    r1, =__etext
     6c8:	00012d14 	.word	0x00012d14
    ldr    r2, =__data_start__
     6cc:	20000000 	.word	0x20000000
    ldr    r3, =__data_end__
     6d0:	20000b70 	.word	0x20000b70
    ldr   r0,=__START
     6d4:	0000047d 	.word	0x0000047d

000006d8 <ADC0_IRQHandler>:
    .align  1
    .thumb_func
    .weak DefaultISR
    .type DefaultISR, %function
DefaultISR:
    b DefaultISR
     6d8:	f7ff bffe 	b.w	6d8 <ADC0_IRQHandler>
    .align 1
    .thumb_func
    .weak NMI_Handler
    .type NMI_Handler, %function
NMI_Handler:
    ldr   r0,=NMI_Handler
     6dc:	4835      	ldr	r0, [pc, #212]	; (7b4 <ENET_1588_Timer_IRQHandler+0x10>)
    bx    r0
     6de:	4700      	bx	r0
    .align 1
    .thumb_func
    .weak HardFault_Handler
    .type HardFault_Handler, %function
HardFault_Handler:
    ldr   r0,=HardFault_Handler
     6e0:	4835      	ldr	r0, [pc, #212]	; (7b8 <ENET_1588_Timer_IRQHandler+0x14>)
    bx    r0
     6e2:	4700      	bx	r0
    .align 1
    .thumb_func
    .weak SVC_Handler
    .type SVC_Handler, %function
SVC_Handler:
    ldr   r0,=SVC_Handler
     6e4:	4835      	ldr	r0, [pc, #212]	; (7bc <ENET_1588_Timer_IRQHandler+0x18>)
    bx    r0
     6e6:	4700      	bx	r0
    .align 1
    .thumb_func
    .weak PendSV_Handler
    .type PendSV_Handler, %function
PendSV_Handler:
    ldr   r0,=PendSV_Handler
     6e8:	4835      	ldr	r0, [pc, #212]	; (7c0 <ENET_1588_Timer_IRQHandler+0x1c>)
    bx    r0
     6ea:	4700      	bx	r0
    .align 1
    .thumb_func
    .weak SysTick_Handler
    .type SysTick_Handler, %function
SysTick_Handler:
    ldr   r0,=SysTick_Handler
     6ec:	4835      	ldr	r0, [pc, #212]	; (7c4 <ENET_1588_Timer_IRQHandler+0x20>)
    bx    r0
     6ee:	4700      	bx	r0

000006f0 <DMA0_IRQHandler>:
    .align 1
    .thumb_func
    .weak DMA0_IRQHandler
    .type DMA0_IRQHandler, %function
DMA0_IRQHandler:
    ldr   r0,=DMA0_DriverIRQHandler
     6f0:	4835      	ldr	r0, [pc, #212]	; (7c8 <ENET_1588_Timer_IRQHandler+0x24>)
    bx    r0
     6f2:	4700      	bx	r0

000006f4 <DMA1_IRQHandler>:
    .align 1
    .thumb_func
    .weak DMA1_IRQHandler
    .type DMA1_IRQHandler, %function
DMA1_IRQHandler:
    ldr   r0,=DMA1_DriverIRQHandler
     6f4:	4835      	ldr	r0, [pc, #212]	; (7cc <ENET_1588_Timer_IRQHandler+0x28>)
    bx    r0
     6f6:	4700      	bx	r0

000006f8 <DMA2_IRQHandler>:
    .align 1
    .thumb_func
    .weak DMA2_IRQHandler
    .type DMA2_IRQHandler, %function
DMA2_IRQHandler:
    ldr   r0,=DMA2_DriverIRQHandler
     6f8:	4835      	ldr	r0, [pc, #212]	; (7d0 <ENET_1588_Timer_IRQHandler+0x2c>)
    bx    r0
     6fa:	4700      	bx	r0

000006fc <DMA3_IRQHandler>:
    .align 1
    .thumb_func
    .weak DMA3_IRQHandler
    .type DMA3_IRQHandler, %function
DMA3_IRQHandler:
    ldr   r0,=DMA3_DriverIRQHandler
     6fc:	4835      	ldr	r0, [pc, #212]	; (7d4 <ENET_1588_Timer_IRQHandler+0x30>)
    bx    r0
     6fe:	4700      	bx	r0

00000700 <DMA4_IRQHandler>:
    .align 1
    .thumb_func
    .weak DMA4_IRQHandler
    .type DMA4_IRQHandler, %function
DMA4_IRQHandler:
    ldr   r0,=DMA4_DriverIRQHandler
     700:	4835      	ldr	r0, [pc, #212]	; (7d8 <ENET_1588_Timer_IRQHandler+0x34>)
    bx    r0
     702:	4700      	bx	r0

00000704 <DMA5_IRQHandler>:
    .align 1
    .thumb_func
    .weak DMA5_IRQHandler
    .type DMA5_IRQHandler, %function
DMA5_IRQHandler:
    ldr   r0,=DMA5_DriverIRQHandler
     704:	4835      	ldr	r0, [pc, #212]	; (7dc <ENET_1588_Timer_IRQHandler+0x38>)
    bx    r0
     706:	4700      	bx	r0

00000708 <DMA6_IRQHandler>:
    .align 1
    .thumb_func
    .weak DMA6_IRQHandler
    .type DMA6_IRQHandler, %function
DMA6_IRQHandler:
    ldr   r0,=DMA6_DriverIRQHandler
     708:	4835      	ldr	r0, [pc, #212]	; (7e0 <ENET_1588_Timer_IRQHandler+0x3c>)
    bx    r0
     70a:	4700      	bx	r0

0000070c <DMA7_IRQHandler>:
    .align 1
    .thumb_func
    .weak DMA7_IRQHandler
    .type DMA7_IRQHandler, %function
DMA7_IRQHandler:
    ldr   r0,=DMA7_DriverIRQHandler
     70c:	4835      	ldr	r0, [pc, #212]	; (7e4 <ENET_1588_Timer_IRQHandler+0x40>)
    bx    r0
     70e:	4700      	bx	r0

00000710 <DMA8_IRQHandler>:
    .align 1
    .thumb_func
    .weak DMA8_IRQHandler
    .type DMA8_IRQHandler, %function
DMA8_IRQHandler:
    ldr   r0,=DMA8_DriverIRQHandler
     710:	4835      	ldr	r0, [pc, #212]	; (7e8 <ENET_1588_Timer_IRQHandler+0x44>)
    bx    r0
     712:	4700      	bx	r0

00000714 <DMA9_IRQHandler>:
    .align 1
    .thumb_func
    .weak DMA9_IRQHandler
    .type DMA9_IRQHandler, %function
DMA9_IRQHandler:
    ldr   r0,=DMA9_DriverIRQHandler
     714:	4835      	ldr	r0, [pc, #212]	; (7ec <ENET_1588_Timer_IRQHandler+0x48>)
    bx    r0
     716:	4700      	bx	r0

00000718 <DMA10_IRQHandler>:
    .align 1
    .thumb_func
    .weak DMA10_IRQHandler
    .type DMA10_IRQHandler, %function
DMA10_IRQHandler:
    ldr   r0,=DMA10_DriverIRQHandler
     718:	4835      	ldr	r0, [pc, #212]	; (7f0 <ENET_1588_Timer_IRQHandler+0x4c>)
    bx    r0
     71a:	4700      	bx	r0

0000071c <DMA11_IRQHandler>:
    .align 1
    .thumb_func
    .weak DMA11_IRQHandler
    .type DMA11_IRQHandler, %function
DMA11_IRQHandler:
    ldr   r0,=DMA11_DriverIRQHandler
     71c:	4835      	ldr	r0, [pc, #212]	; (7f4 <ENET_1588_Timer_IRQHandler+0x50>)
    bx    r0
     71e:	4700      	bx	r0

00000720 <DMA12_IRQHandler>:
    .align 1
    .thumb_func
    .weak DMA12_IRQHandler
    .type DMA12_IRQHandler, %function
DMA12_IRQHandler:
    ldr   r0,=DMA12_DriverIRQHandler
     720:	4835      	ldr	r0, [pc, #212]	; (7f8 <ENET_1588_Timer_IRQHandler+0x54>)
    bx    r0
     722:	4700      	bx	r0

00000724 <DMA13_IRQHandler>:
    .align 1
    .thumb_func
    .weak DMA13_IRQHandler
    .type DMA13_IRQHandler, %function
DMA13_IRQHandler:
    ldr   r0,=DMA13_DriverIRQHandler
     724:	4835      	ldr	r0, [pc, #212]	; (7fc <ENET_1588_Timer_IRQHandler+0x58>)
    bx    r0
     726:	4700      	bx	r0

00000728 <DMA14_IRQHandler>:
    .align 1
    .thumb_func
    .weak DMA14_IRQHandler
    .type DMA14_IRQHandler, %function
DMA14_IRQHandler:
    ldr   r0,=DMA14_DriverIRQHandler
     728:	4835      	ldr	r0, [pc, #212]	; (800 <USB_RAM_GAP>)
    bx    r0
     72a:	4700      	bx	r0

0000072c <DMA15_IRQHandler>:
    .align 1
    .thumb_func
    .weak DMA15_IRQHandler
    .type DMA15_IRQHandler, %function
DMA15_IRQHandler:
    ldr   r0,=DMA15_DriverIRQHandler
     72c:	4835      	ldr	r0, [pc, #212]	; (804 <USB_RAM_GAP+0x4>)
    bx    r0
     72e:	4700      	bx	r0

00000730 <DMA_Error_IRQHandler>:
    .align 1
    .thumb_func
    .weak DMA_Error_IRQHandler
    .type DMA_Error_IRQHandler, %function
DMA_Error_IRQHandler:
    ldr   r0,=DMA_Error_DriverIRQHandler
     730:	4835      	ldr	r0, [pc, #212]	; (808 <USB_RAM_GAP+0x8>)
    bx    r0
     732:	4700      	bx	r0

00000734 <I2C0_IRQHandler>:
    .align 1
    .thumb_func
    .weak I2C0_IRQHandler
    .type I2C0_IRQHandler, %function
I2C0_IRQHandler:
    ldr   r0,=I2C0_DriverIRQHandler
     734:	4835      	ldr	r0, [pc, #212]	; (80c <USB_RAM_GAP+0xc>)
    bx    r0
     736:	4700      	bx	r0

00000738 <I2C1_IRQHandler>:
    .align 1
    .thumb_func
    .weak I2C1_IRQHandler
    .type I2C1_IRQHandler, %function
I2C1_IRQHandler:
    ldr   r0,=I2C1_DriverIRQHandler
     738:	4835      	ldr	r0, [pc, #212]	; (810 <USB_RAM_GAP+0x10>)
    bx    r0
     73a:	4700      	bx	r0

0000073c <SPI0_IRQHandler>:
    .align 1
    .thumb_func
    .weak SPI0_IRQHandler
    .type SPI0_IRQHandler, %function
SPI0_IRQHandler:
    ldr   r0,=SPI0_DriverIRQHandler
     73c:	4835      	ldr	r0, [pc, #212]	; (814 <USB_RAM_GAP+0x14>)
    bx    r0
     73e:	4700      	bx	r0

00000740 <SPI1_IRQHandler>:
    .align 1
    .thumb_func
    .weak SPI1_IRQHandler
    .type SPI1_IRQHandler, %function
SPI1_IRQHandler:
    ldr   r0,=SPI1_DriverIRQHandler
     740:	4835      	ldr	r0, [pc, #212]	; (818 <USB_RAM_GAP+0x18>)
    bx    r0
     742:	4700      	bx	r0

00000744 <I2S0_Tx_IRQHandler>:
    .align 1
    .thumb_func
    .weak I2S0_Tx_IRQHandler
    .type I2S0_Tx_IRQHandler, %function
I2S0_Tx_IRQHandler:
    ldr   r0,=I2S0_Tx_DriverIRQHandler
     744:	4835      	ldr	r0, [pc, #212]	; (81c <USB_RAM_GAP+0x1c>)
    bx    r0
     746:	4700      	bx	r0

00000748 <I2S0_Rx_IRQHandler>:
    .align 1
    .thumb_func
    .weak I2S0_Rx_IRQHandler
    .type I2S0_Rx_IRQHandler, %function
I2S0_Rx_IRQHandler:
    ldr   r0,=I2S0_Rx_DriverIRQHandler
     748:	4835      	ldr	r0, [pc, #212]	; (820 <USB_RAM_GAP+0x20>)
    bx    r0
     74a:	4700      	bx	r0

0000074c <UART0_LON_IRQHandler>:
    .align 1
    .thumb_func
    .weak UART0_LON_IRQHandler
    .type UART0_LON_IRQHandler, %function
UART0_LON_IRQHandler:
    ldr   r0,=UART0_LON_DriverIRQHandler
     74c:	4835      	ldr	r0, [pc, #212]	; (824 <USB_RAM_GAP+0x24>)
    bx    r0
     74e:	4700      	bx	r0

00000750 <UART0_RX_TX_IRQHandler>:
    .align 1
    .thumb_func
    .weak UART0_RX_TX_IRQHandler
    .type UART0_RX_TX_IRQHandler, %function
UART0_RX_TX_IRQHandler:
    ldr   r0,=UART0_RX_TX_DriverIRQHandler
     750:	4835      	ldr	r0, [pc, #212]	; (828 <USB_RAM_GAP+0x28>)
    bx    r0
     752:	4700      	bx	r0

00000754 <UART0_ERR_IRQHandler>:
    .align 1
    .thumb_func
    .weak UART0_ERR_IRQHandler
    .type UART0_ERR_IRQHandler, %function
UART0_ERR_IRQHandler:
    ldr   r0,=UART0_ERR_DriverIRQHandler
     754:	4835      	ldr	r0, [pc, #212]	; (82c <USB_RAM_GAP+0x2c>)
    bx    r0
     756:	4700      	bx	r0

00000758 <UART1_RX_TX_IRQHandler>:
    .align 1
    .thumb_func
    .weak UART1_RX_TX_IRQHandler
    .type UART1_RX_TX_IRQHandler, %function
UART1_RX_TX_IRQHandler:
    ldr   r0,=UART1_RX_TX_DriverIRQHandler
     758:	4835      	ldr	r0, [pc, #212]	; (830 <USB_RAM_GAP+0x30>)
    bx    r0
     75a:	4700      	bx	r0

0000075c <UART1_ERR_IRQHandler>:
    .align 1
    .thumb_func
    .weak UART1_ERR_IRQHandler
    .type UART1_ERR_IRQHandler, %function
UART1_ERR_IRQHandler:
    ldr   r0,=UART1_ERR_DriverIRQHandler
     75c:	4835      	ldr	r0, [pc, #212]	; (834 <USB_RAM_GAP+0x34>)
    bx    r0
     75e:	4700      	bx	r0

00000760 <UART2_RX_TX_IRQHandler>:
    .align 1
    .thumb_func
    .weak UART2_RX_TX_IRQHandler
    .type UART2_RX_TX_IRQHandler, %function
UART2_RX_TX_IRQHandler:
    ldr   r0,=UART2_RX_TX_DriverIRQHandler
     760:	4835      	ldr	r0, [pc, #212]	; (838 <USB_RAM_GAP+0x38>)
    bx    r0
     762:	4700      	bx	r0

00000764 <UART2_ERR_IRQHandler>:
    .align 1
    .thumb_func
    .weak UART2_ERR_IRQHandler
    .type UART2_ERR_IRQHandler, %function
UART2_ERR_IRQHandler:
    ldr   r0,=UART2_ERR_DriverIRQHandler
     764:	4835      	ldr	r0, [pc, #212]	; (83c <USB_RAM_GAP+0x3c>)
    bx    r0
     766:	4700      	bx	r0

00000768 <UART3_RX_TX_IRQHandler>:
    .align 1
    .thumb_func
    .weak UART3_RX_TX_IRQHandler
    .type UART3_RX_TX_IRQHandler, %function
UART3_RX_TX_IRQHandler:
    ldr   r0,=UART3_RX_TX_DriverIRQHandler
     768:	4835      	ldr	r0, [pc, #212]	; (840 <USB_RAM_GAP+0x40>)
    bx    r0
     76a:	4700      	bx	r0

0000076c <UART3_ERR_IRQHandler>:
    .align 1
    .thumb_func
    .weak UART3_ERR_IRQHandler
    .type UART3_ERR_IRQHandler, %function
UART3_ERR_IRQHandler:
    ldr   r0,=UART3_ERR_DriverIRQHandler
     76c:	4835      	ldr	r0, [pc, #212]	; (844 <USB_RAM_GAP+0x44>)
    bx    r0
     76e:	4700      	bx	r0

00000770 <SPI2_IRQHandler>:
    .align 1
    .thumb_func
    .weak SPI2_IRQHandler
    .type SPI2_IRQHandler, %function
SPI2_IRQHandler:
    ldr   r0,=SPI2_DriverIRQHandler
     770:	4835      	ldr	r0, [pc, #212]	; (848 <USB_RAM_GAP+0x48>)
    bx    r0
     772:	4700      	bx	r0

00000774 <UART4_RX_TX_IRQHandler>:
    .align 1
    .thumb_func
    .weak UART4_RX_TX_IRQHandler
    .type UART4_RX_TX_IRQHandler, %function
UART4_RX_TX_IRQHandler:
    ldr   r0,=UART4_RX_TX_DriverIRQHandler
     774:	4835      	ldr	r0, [pc, #212]	; (84c <USB_RAM_GAP+0x4c>)
    bx    r0
     776:	4700      	bx	r0

00000778 <UART4_ERR_IRQHandler>:
    .align 1
    .thumb_func
    .weak UART4_ERR_IRQHandler
    .type UART4_ERR_IRQHandler, %function
UART4_ERR_IRQHandler:
    ldr   r0,=UART4_ERR_DriverIRQHandler
     778:	4835      	ldr	r0, [pc, #212]	; (850 <USB_RAM_GAP+0x50>)
    bx    r0
     77a:	4700      	bx	r0

0000077c <UART5_RX_TX_IRQHandler>:
    .align 1
    .thumb_func
    .weak UART5_RX_TX_IRQHandler
    .type UART5_RX_TX_IRQHandler, %function
UART5_RX_TX_IRQHandler:
    ldr   r0,=UART5_RX_TX_DriverIRQHandler
     77c:	4835      	ldr	r0, [pc, #212]	; (854 <USB_RAM_GAP+0x54>)
    bx    r0
     77e:	4700      	bx	r0

00000780 <UART5_ERR_IRQHandler>:
    .align 1
    .thumb_func
    .weak UART5_ERR_IRQHandler
    .type UART5_ERR_IRQHandler, %function
UART5_ERR_IRQHandler:
    ldr   r0,=UART5_ERR_DriverIRQHandler
     780:	4835      	ldr	r0, [pc, #212]	; (858 <USB_RAM_GAP+0x58>)
    bx    r0
     782:	4700      	bx	r0

00000784 <I2C2_IRQHandler>:
    .align 1
    .thumb_func
    .weak I2C2_IRQHandler
    .type I2C2_IRQHandler, %function
I2C2_IRQHandler:
    ldr   r0,=I2C2_DriverIRQHandler
     784:	4835      	ldr	r0, [pc, #212]	; (85c <USB_RAM_GAP+0x5c>)
    bx    r0
     786:	4700      	bx	r0

00000788 <CAN0_ORed_Message_buffer_IRQHandler>:
    .align 1
    .thumb_func
    .weak CAN0_ORed_Message_buffer_IRQHandler
    .type CAN0_ORed_Message_buffer_IRQHandler, %function
CAN0_ORed_Message_buffer_IRQHandler:
    ldr   r0,=CAN0_DriverIRQHandler
     788:	4835      	ldr	r0, [pc, #212]	; (860 <USB_RAM_GAP+0x60>)
    bx    r0
     78a:	4700      	bx	r0

0000078c <CAN0_Bus_Off_IRQHandler>:
    .align 1
    .thumb_func
    .weak CAN0_Bus_Off_IRQHandler
    .type CAN0_Bus_Off_IRQHandler, %function
CAN0_Bus_Off_IRQHandler:
    ldr   r0,=CAN0_DriverIRQHandler
     78c:	4834      	ldr	r0, [pc, #208]	; (860 <USB_RAM_GAP+0x60>)
    bx    r0
     78e:	4700      	bx	r0

00000790 <CAN0_Error_IRQHandler>:
    .align 1
    .thumb_func
    .weak CAN0_Error_IRQHandler
    .type CAN0_Error_IRQHandler, %function
CAN0_Error_IRQHandler:
    ldr   r0,=CAN0_DriverIRQHandler
     790:	4833      	ldr	r0, [pc, #204]	; (860 <USB_RAM_GAP+0x60>)
    bx    r0
     792:	4700      	bx	r0

00000794 <CAN0_Tx_Warning_IRQHandler>:
    .align 1
    .thumb_func
    .weak CAN0_Tx_Warning_IRQHandler
    .type CAN0_Tx_Warning_IRQHandler, %function
CAN0_Tx_Warning_IRQHandler:
    ldr   r0,=CAN0_DriverIRQHandler
     794:	4832      	ldr	r0, [pc, #200]	; (860 <USB_RAM_GAP+0x60>)
    bx    r0
     796:	4700      	bx	r0

00000798 <CAN0_Rx_Warning_IRQHandler>:
    .align 1
    .thumb_func
    .weak CAN0_Rx_Warning_IRQHandler
    .type CAN0_Rx_Warning_IRQHandler, %function
CAN0_Rx_Warning_IRQHandler:
    ldr   r0,=CAN0_DriverIRQHandler
     798:	4831      	ldr	r0, [pc, #196]	; (860 <USB_RAM_GAP+0x60>)
    bx    r0
     79a:	4700      	bx	r0

0000079c <CAN0_Wake_Up_IRQHandler>:
    .align 1
    .thumb_func
    .weak CAN0_Wake_Up_IRQHandler
    .type CAN0_Wake_Up_IRQHandler, %function
CAN0_Wake_Up_IRQHandler:
    ldr   r0,=CAN0_DriverIRQHandler
     79c:	4830      	ldr	r0, [pc, #192]	; (860 <USB_RAM_GAP+0x60>)
    bx    r0
     79e:	4700      	bx	r0

000007a0 <SDHC_IRQHandler>:
    .align 1
    .thumb_func
    .weak SDHC_IRQHandler
    .type SDHC_IRQHandler, %function
SDHC_IRQHandler:
    ldr   r0,=SDHC_DriverIRQHandler
     7a0:	4830      	ldr	r0, [pc, #192]	; (864 <USB_RAM_GAP+0x64>)
    bx    r0
     7a2:	4700      	bx	r0

000007a4 <ENET_1588_Timer_IRQHandler>:
    .align 1
    .thumb_func
    .weak ENET_1588_Timer_IRQHandler
    .type ENET_1588_Timer_IRQHandler, %function
ENET_1588_Timer_IRQHandler:
    ldr   r0,=ENET_1588_Timer_DriverIRQHandler
     7a4:	4830      	ldr	r0, [pc, #192]	; (868 <USB_RAM_GAP+0x68>)
    bx    r0
     7a6:	4700      	bx	r0
    .align 1
    .thumb_func
    .weak ENET_Transmit_IRQHandler
    .type ENET_Transmit_IRQHandler, %function
ENET_Transmit_IRQHandler:
    ldr   r0,=ENET_Transmit_DriverIRQHandler
     7a8:	4830      	ldr	r0, [pc, #192]	; (86c <USB_RAM_GAP+0x6c>)
    bx    r0
     7aa:	4700      	bx	r0
    .align 1
    .thumb_func
    .weak ENET_Receive_IRQHandler
    .type ENET_Receive_IRQHandler, %function
ENET_Receive_IRQHandler:
    ldr   r0,=ENET_Receive_DriverIRQHandler
     7ac:	4830      	ldr	r0, [pc, #192]	; (870 <USB_RAM_GAP+0x70>)
    bx    r0
     7ae:	4700      	bx	r0
    .align 1
    .thumb_func
    .weak ENET_Error_IRQHandler
    .type ENET_Error_IRQHandler, %function
ENET_Error_IRQHandler:
    ldr   r0,=ENET_Error_DriverIRQHandler
     7b0:	4830      	ldr	r0, [pc, #192]	; (874 <USB_RAM_GAP+0x74>)
    bx    r0
     7b2:	4700      	bx	r0
    ldr   r0,=NMI_Handler
     7b4:	00007fb3 	.word	0x00007fb3
    ldr   r0,=HardFault_Handler
     7b8:	000004f1 	.word	0x000004f1
    ldr   r0,=SVC_Handler
     7bc:	000005c5 	.word	0x000005c5
    ldr   r0,=PendSV_Handler
     7c0:	00000667 	.word	0x00000667
    ldr   r0,=SysTick_Handler
     7c4:	00000677 	.word	0x00000677
    ldr   r0,=DMA0_DriverIRQHandler
     7c8:	00008d8d 	.word	0x00008d8d
    ldr   r0,=DMA1_DriverIRQHandler
     7cc:	00008da1 	.word	0x00008da1
    ldr   r0,=DMA2_DriverIRQHandler
     7d0:	00008db5 	.word	0x00008db5
    ldr   r0,=DMA3_DriverIRQHandler
     7d4:	00008dc9 	.word	0x00008dc9
    ldr   r0,=DMA4_DriverIRQHandler
     7d8:	00008ddd 	.word	0x00008ddd
    ldr   r0,=DMA5_DriverIRQHandler
     7dc:	00008df1 	.word	0x00008df1
    ldr   r0,=DMA6_DriverIRQHandler
     7e0:	00008e05 	.word	0x00008e05
    ldr   r0,=DMA7_DriverIRQHandler
     7e4:	00008e19 	.word	0x00008e19
    ldr   r0,=DMA8_DriverIRQHandler
     7e8:	00008e2d 	.word	0x00008e2d
    ldr   r0,=DMA9_DriverIRQHandler
     7ec:	00008e41 	.word	0x00008e41
    ldr   r0,=DMA10_DriverIRQHandler
     7f0:	00008e55 	.word	0x00008e55
    ldr   r0,=DMA11_DriverIRQHandler
     7f4:	00008e69 	.word	0x00008e69
    ldr   r0,=DMA12_DriverIRQHandler
     7f8:	00008e7d 	.word	0x00008e7d
    ldr   r0,=DMA13_DriverIRQHandler
     7fc:	00008e91 	.word	0x00008e91
    ldr   r0,=DMA14_DriverIRQHandler
     800:	00008ea5 	.word	0x00008ea5
    ldr   r0,=DMA15_DriverIRQHandler
     804:	00008eb9 	.word	0x00008eb9
    ldr   r0,=DMA_Error_DriverIRQHandler
     808:	000006d9 	.word	0x000006d9
    ldr   r0,=I2C0_DriverIRQHandler
     80c:	00008fc1 	.word	0x00008fc1
    ldr   r0,=I2C1_DriverIRQHandler
     810:	00008fdd 	.word	0x00008fdd
    ldr   r0,=SPI0_DriverIRQHandler
     814:	00008b79 	.word	0x00008b79
    ldr   r0,=SPI1_DriverIRQHandler
     818:	00008bb5 	.word	0x00008bb5
    ldr   r0,=I2S0_Tx_DriverIRQHandler
     81c:	00009101 	.word	0x00009101
    ldr   r0,=I2S0_Rx_DriverIRQHandler
     820:	00009145 	.word	0x00009145
    ldr   r0,=UART0_LON_DriverIRQHandler
     824:	000006d9 	.word	0x000006d9
    ldr   r0,=UART0_RX_TX_DriverIRQHandler
     828:	000097f9 	.word	0x000097f9
    ldr   r0,=UART0_ERR_DriverIRQHandler
     82c:	000006d9 	.word	0x000006d9
    ldr   r0,=UART1_RX_TX_DriverIRQHandler
     830:	00009825 	.word	0x00009825
    ldr   r0,=UART1_ERR_DriverIRQHandler
     834:	000006d9 	.word	0x000006d9
    ldr   r0,=UART2_RX_TX_DriverIRQHandler
     838:	00009851 	.word	0x00009851
    ldr   r0,=UART2_ERR_DriverIRQHandler
     83c:	000006d9 	.word	0x000006d9
    ldr   r0,=UART3_RX_TX_DriverIRQHandler
     840:	0000987d 	.word	0x0000987d
    ldr   r0,=UART3_ERR_DriverIRQHandler
     844:	000006d9 	.word	0x000006d9
    ldr   r0,=SPI2_DriverIRQHandler
     848:	00008bf1 	.word	0x00008bf1
    ldr   r0,=UART4_RX_TX_DriverIRQHandler
     84c:	000098a9 	.word	0x000098a9
    ldr   r0,=UART4_ERR_DriverIRQHandler
     850:	000006d9 	.word	0x000006d9
    ldr   r0,=UART5_RX_TX_DriverIRQHandler
     854:	000098d5 	.word	0x000098d5
    ldr   r0,=UART5_ERR_DriverIRQHandler
     858:	000006d9 	.word	0x000006d9
    ldr   r0,=I2C2_DriverIRQHandler
     85c:	00008ff9 	.word	0x00008ff9
    ldr   r0,=CAN0_DriverIRQHandler
     860:	00008f2d 	.word	0x00008f2d
    ldr   r0,=SDHC_DriverIRQHandler
     864:	00009189 	.word	0x00009189
    ldr   r0,=ENET_1588_Timer_DriverIRQHandler
     868:	000006d9 	.word	0x000006d9
    ldr   r0,=ENET_Transmit_DriverIRQHandler
     86c:	000006d9 	.word	0x000006d9
    ldr   r0,=ENET_Receive_DriverIRQHandler
     870:	000006d9 	.word	0x000006d9
    ldr   r0,=ENET_Error_DriverIRQHandler
     874:	000006d9 	.word	0x000006d9
	...

00000880 <memchr>:
     880:	f001 01ff 	and.w	r1, r1, #255	; 0xff
     884:	2a10      	cmp	r2, #16
     886:	db2b      	blt.n	8e0 <memchr+0x60>
     888:	f010 0f07 	tst.w	r0, #7
     88c:	d008      	beq.n	8a0 <memchr+0x20>
     88e:	f810 3b01 	ldrb.w	r3, [r0], #1
     892:	3a01      	subs	r2, #1
     894:	428b      	cmp	r3, r1
     896:	d02d      	beq.n	8f4 <memchr+0x74>
     898:	f010 0f07 	tst.w	r0, #7
     89c:	b342      	cbz	r2, 8f0 <memchr+0x70>
     89e:	d1f6      	bne.n	88e <memchr+0xe>
     8a0:	b4f0      	push	{r4, r5, r6, r7}
     8a2:	ea41 2101 	orr.w	r1, r1, r1, lsl #8
     8a6:	ea41 4101 	orr.w	r1, r1, r1, lsl #16
     8aa:	f022 0407 	bic.w	r4, r2, #7
     8ae:	f07f 0700 	mvns.w	r7, #0
     8b2:	2300      	movs	r3, #0
     8b4:	e8f0 5602 	ldrd	r5, r6, [r0], #8
     8b8:	3c08      	subs	r4, #8
     8ba:	ea85 0501 	eor.w	r5, r5, r1
     8be:	ea86 0601 	eor.w	r6, r6, r1
     8c2:	fa85 f547 	uadd8	r5, r5, r7
     8c6:	faa3 f587 	sel	r5, r3, r7
     8ca:	fa86 f647 	uadd8	r6, r6, r7
     8ce:	faa5 f687 	sel	r6, r5, r7
     8d2:	b98e      	cbnz	r6, 8f8 <memchr+0x78>
     8d4:	d1ee      	bne.n	8b4 <memchr+0x34>
     8d6:	bcf0      	pop	{r4, r5, r6, r7}
     8d8:	f001 01ff 	and.w	r1, r1, #255	; 0xff
     8dc:	f002 0207 	and.w	r2, r2, #7
     8e0:	b132      	cbz	r2, 8f0 <memchr+0x70>
     8e2:	f810 3b01 	ldrb.w	r3, [r0], #1
     8e6:	3a01      	subs	r2, #1
     8e8:	ea83 0301 	eor.w	r3, r3, r1
     8ec:	b113      	cbz	r3, 8f4 <memchr+0x74>
     8ee:	d1f8      	bne.n	8e2 <memchr+0x62>
     8f0:	2000      	movs	r0, #0
     8f2:	4770      	bx	lr
     8f4:	3801      	subs	r0, #1
     8f6:	4770      	bx	lr
     8f8:	2d00      	cmp	r5, #0
     8fa:	bf06      	itte	eq
     8fc:	4635      	moveq	r5, r6
     8fe:	3803      	subeq	r0, #3
     900:	3807      	subne	r0, #7
     902:	f015 0f01 	tst.w	r5, #1
     906:	d107      	bne.n	918 <memchr+0x98>
     908:	3001      	adds	r0, #1
     90a:	f415 7f80 	tst.w	r5, #256	; 0x100
     90e:	bf02      	ittt	eq
     910:	3001      	addeq	r0, #1
     912:	f415 3fc0 	tsteq.w	r5, #98304	; 0x18000
     916:	3001      	addeq	r0, #1
     918:	bcf0      	pop	{r4, r5, r6, r7}
     91a:	3801      	subs	r0, #1
     91c:	4770      	bx	lr
     91e:	bf00      	nop

00000920 <memcpy>:
     920:	4684      	mov	ip, r0
     922:	ea41 0300 	orr.w	r3, r1, r0
     926:	f013 0303 	ands.w	r3, r3, #3
     92a:	d16d      	bne.n	a08 <memcpy+0xe8>
     92c:	3a40      	subs	r2, #64	; 0x40
     92e:	d341      	bcc.n	9b4 <memcpy+0x94>
     930:	f851 3b04 	ldr.w	r3, [r1], #4
     934:	f840 3b04 	str.w	r3, [r0], #4
     938:	f851 3b04 	ldr.w	r3, [r1], #4
     93c:	f840 3b04 	str.w	r3, [r0], #4
     940:	f851 3b04 	ldr.w	r3, [r1], #4
     944:	f840 3b04 	str.w	r3, [r0], #4
     948:	f851 3b04 	ldr.w	r3, [r1], #4
     94c:	f840 3b04 	str.w	r3, [r0], #4
     950:	f851 3b04 	ldr.w	r3, [r1], #4
     954:	f840 3b04 	str.w	r3, [r0], #4
     958:	f851 3b04 	ldr.w	r3, [r1], #4
     95c:	f840 3b04 	str.w	r3, [r0], #4
     960:	f851 3b04 	ldr.w	r3, [r1], #4
     964:	f840 3b04 	str.w	r3, [r0], #4
     968:	f851 3b04 	ldr.w	r3, [r1], #4
     96c:	f840 3b04 	str.w	r3, [r0], #4
     970:	f851 3b04 	ldr.w	r3, [r1], #4
     974:	f840 3b04 	str.w	r3, [r0], #4
     978:	f851 3b04 	ldr.w	r3, [r1], #4
     97c:	f840 3b04 	str.w	r3, [r0], #4
     980:	f851 3b04 	ldr.w	r3, [r1], #4
     984:	f840 3b04 	str.w	r3, [r0], #4
     988:	f851 3b04 	ldr.w	r3, [r1], #4
     98c:	f840 3b04 	str.w	r3, [r0], #4
     990:	f851 3b04 	ldr.w	r3, [r1], #4
     994:	f840 3b04 	str.w	r3, [r0], #4
     998:	f851 3b04 	ldr.w	r3, [r1], #4
     99c:	f840 3b04 	str.w	r3, [r0], #4
     9a0:	f851 3b04 	ldr.w	r3, [r1], #4
     9a4:	f840 3b04 	str.w	r3, [r0], #4
     9a8:	f851 3b04 	ldr.w	r3, [r1], #4
     9ac:	f840 3b04 	str.w	r3, [r0], #4
     9b0:	3a40      	subs	r2, #64	; 0x40
     9b2:	d2bd      	bcs.n	930 <memcpy+0x10>
     9b4:	3230      	adds	r2, #48	; 0x30
     9b6:	d311      	bcc.n	9dc <memcpy+0xbc>
     9b8:	f851 3b04 	ldr.w	r3, [r1], #4
     9bc:	f840 3b04 	str.w	r3, [r0], #4
     9c0:	f851 3b04 	ldr.w	r3, [r1], #4
     9c4:	f840 3b04 	str.w	r3, [r0], #4
     9c8:	f851 3b04 	ldr.w	r3, [r1], #4
     9cc:	f840 3b04 	str.w	r3, [r0], #4
     9d0:	f851 3b04 	ldr.w	r3, [r1], #4
     9d4:	f840 3b04 	str.w	r3, [r0], #4
     9d8:	3a10      	subs	r2, #16
     9da:	d2ed      	bcs.n	9b8 <memcpy+0x98>
     9dc:	320c      	adds	r2, #12
     9de:	d305      	bcc.n	9ec <memcpy+0xcc>
     9e0:	f851 3b04 	ldr.w	r3, [r1], #4
     9e4:	f840 3b04 	str.w	r3, [r0], #4
     9e8:	3a04      	subs	r2, #4
     9ea:	d2f9      	bcs.n	9e0 <memcpy+0xc0>
     9ec:	3204      	adds	r2, #4
     9ee:	d008      	beq.n	a02 <memcpy+0xe2>
     9f0:	07d2      	lsls	r2, r2, #31
     9f2:	bf1c      	itt	ne
     9f4:	f811 3b01 	ldrbne.w	r3, [r1], #1
     9f8:	f800 3b01 	strbne.w	r3, [r0], #1
     9fc:	d301      	bcc.n	a02 <memcpy+0xe2>
     9fe:	880b      	ldrh	r3, [r1, #0]
     a00:	8003      	strh	r3, [r0, #0]
     a02:	4660      	mov	r0, ip
     a04:	4770      	bx	lr
     a06:	bf00      	nop
     a08:	2a08      	cmp	r2, #8
     a0a:	d313      	bcc.n	a34 <memcpy+0x114>
     a0c:	078b      	lsls	r3, r1, #30
     a0e:	d08d      	beq.n	92c <memcpy+0xc>
     a10:	f010 0303 	ands.w	r3, r0, #3
     a14:	d08a      	beq.n	92c <memcpy+0xc>
     a16:	f1c3 0304 	rsb	r3, r3, #4
     a1a:	1ad2      	subs	r2, r2, r3
     a1c:	07db      	lsls	r3, r3, #31
     a1e:	bf1c      	itt	ne
     a20:	f811 3b01 	ldrbne.w	r3, [r1], #1
     a24:	f800 3b01 	strbne.w	r3, [r0], #1
     a28:	d380      	bcc.n	92c <memcpy+0xc>
     a2a:	f831 3b02 	ldrh.w	r3, [r1], #2
     a2e:	f820 3b02 	strh.w	r3, [r0], #2
     a32:	e77b      	b.n	92c <memcpy+0xc>
     a34:	3a04      	subs	r2, #4
     a36:	d3d9      	bcc.n	9ec <memcpy+0xcc>
     a38:	3a01      	subs	r2, #1
     a3a:	f811 3b01 	ldrb.w	r3, [r1], #1
     a3e:	f800 3b01 	strb.w	r3, [r0], #1
     a42:	d2f9      	bcs.n	a38 <memcpy+0x118>
     a44:	780b      	ldrb	r3, [r1, #0]
     a46:	7003      	strb	r3, [r0, #0]
     a48:	784b      	ldrb	r3, [r1, #1]
     a4a:	7043      	strb	r3, [r0, #1]
     a4c:	788b      	ldrb	r3, [r1, #2]
     a4e:	7083      	strb	r3, [r0, #2]
     a50:	4660      	mov	r0, ip
     a52:	4770      	bx	lr
	...

00000a80 <strlen>:
     a80:	f890 f000 	pld	[r0]
     a84:	e96d 4502 	strd	r4, r5, [sp, #-8]!
     a88:	f020 0107 	bic.w	r1, r0, #7
     a8c:	f06f 0c00 	mvn.w	ip, #0
     a90:	f010 0407 	ands.w	r4, r0, #7
     a94:	f891 f020 	pld	[r1, #32]
     a98:	f040 8049 	bne.w	b2e <strlen+0xae>
     a9c:	f04f 0400 	mov.w	r4, #0
     aa0:	f06f 0007 	mvn.w	r0, #7
     aa4:	e9d1 2300 	ldrd	r2, r3, [r1]
     aa8:	f891 f040 	pld	[r1, #64]	; 0x40
     aac:	f100 0008 	add.w	r0, r0, #8
     ab0:	fa82 f24c 	uadd8	r2, r2, ip
     ab4:	faa4 f28c 	sel	r2, r4, ip
     ab8:	fa83 f34c 	uadd8	r3, r3, ip
     abc:	faa2 f38c 	sel	r3, r2, ip
     ac0:	bb4b      	cbnz	r3, b16 <strlen+0x96>
     ac2:	e9d1 2302 	ldrd	r2, r3, [r1, #8]
     ac6:	fa82 f24c 	uadd8	r2, r2, ip
     aca:	f100 0008 	add.w	r0, r0, #8
     ace:	faa4 f28c 	sel	r2, r4, ip
     ad2:	fa83 f34c 	uadd8	r3, r3, ip
     ad6:	faa2 f38c 	sel	r3, r2, ip
     ada:	b9e3      	cbnz	r3, b16 <strlen+0x96>
     adc:	e9d1 2304 	ldrd	r2, r3, [r1, #16]
     ae0:	fa82 f24c 	uadd8	r2, r2, ip
     ae4:	f100 0008 	add.w	r0, r0, #8
     ae8:	faa4 f28c 	sel	r2, r4, ip
     aec:	fa83 f34c 	uadd8	r3, r3, ip
     af0:	faa2 f38c 	sel	r3, r2, ip
     af4:	b97b      	cbnz	r3, b16 <strlen+0x96>
     af6:	e9d1 2306 	ldrd	r2, r3, [r1, #24]
     afa:	f101 0120 	add.w	r1, r1, #32
     afe:	fa82 f24c 	uadd8	r2, r2, ip
     b02:	f100 0008 	add.w	r0, r0, #8
     b06:	faa4 f28c 	sel	r2, r4, ip
     b0a:	fa83 f34c 	uadd8	r3, r3, ip
     b0e:	faa2 f38c 	sel	r3, r2, ip
     b12:	2b00      	cmp	r3, #0
     b14:	d0c6      	beq.n	aa4 <strlen+0x24>
     b16:	2a00      	cmp	r2, #0
     b18:	bf04      	itt	eq
     b1a:	3004      	addeq	r0, #4
     b1c:	461a      	moveq	r2, r3
     b1e:	ba12      	rev	r2, r2
     b20:	fab2 f282 	clz	r2, r2
     b24:	e8fd 4502 	ldrd	r4, r5, [sp], #8
     b28:	eb00 00d2 	add.w	r0, r0, r2, lsr #3
     b2c:	4770      	bx	lr
     b2e:	e9d1 2300 	ldrd	r2, r3, [r1]
     b32:	f004 0503 	and.w	r5, r4, #3
     b36:	f1c4 0000 	rsb	r0, r4, #0
     b3a:	ea4f 05c5 	mov.w	r5, r5, lsl #3
     b3e:	f014 0f04 	tst.w	r4, #4
     b42:	f891 f040 	pld	[r1, #64]	; 0x40
     b46:	fa0c f505 	lsl.w	r5, ip, r5
     b4a:	ea62 0205 	orn	r2, r2, r5
     b4e:	bf1c      	itt	ne
     b50:	ea63 0305 	ornne	r3, r3, r5
     b54:	4662      	movne	r2, ip
     b56:	f04f 0400 	mov.w	r4, #0
     b5a:	e7a9      	b.n	ab0 <strlen+0x30>

00000b5c <__aeabi_drsub>:
     b5c:	f081 4100 	eor.w	r1, r1, #2147483648	; 0x80000000
     b60:	e002      	b.n	b68 <__adddf3>
     b62:	bf00      	nop

00000b64 <__aeabi_dsub>:
     b64:	f083 4300 	eor.w	r3, r3, #2147483648	; 0x80000000

00000b68 <__adddf3>:
     b68:	b530      	push	{r4, r5, lr}
     b6a:	ea4f 0441 	mov.w	r4, r1, lsl #1
     b6e:	ea4f 0543 	mov.w	r5, r3, lsl #1
     b72:	ea94 0f05 	teq	r4, r5
     b76:	bf08      	it	eq
     b78:	ea90 0f02 	teqeq	r0, r2
     b7c:	bf1f      	itttt	ne
     b7e:	ea54 0c00 	orrsne.w	ip, r4, r0
     b82:	ea55 0c02 	orrsne.w	ip, r5, r2
     b86:	ea7f 5c64 	mvnsne.w	ip, r4, asr #21
     b8a:	ea7f 5c65 	mvnsne.w	ip, r5, asr #21
     b8e:	f000 80e2 	beq.w	d56 <__adddf3+0x1ee>
     b92:	ea4f 5454 	mov.w	r4, r4, lsr #21
     b96:	ebd4 5555 	rsbs	r5, r4, r5, lsr #21
     b9a:	bfb8      	it	lt
     b9c:	426d      	neglt	r5, r5
     b9e:	dd0c      	ble.n	bba <__adddf3+0x52>
     ba0:	442c      	add	r4, r5
     ba2:	ea80 0202 	eor.w	r2, r0, r2
     ba6:	ea81 0303 	eor.w	r3, r1, r3
     baa:	ea82 0000 	eor.w	r0, r2, r0
     bae:	ea83 0101 	eor.w	r1, r3, r1
     bb2:	ea80 0202 	eor.w	r2, r0, r2
     bb6:	ea81 0303 	eor.w	r3, r1, r3
     bba:	2d36      	cmp	r5, #54	; 0x36
     bbc:	bf88      	it	hi
     bbe:	bd30      	pophi	{r4, r5, pc}
     bc0:	f011 4f00 	tst.w	r1, #2147483648	; 0x80000000
     bc4:	ea4f 3101 	mov.w	r1, r1, lsl #12
     bc8:	f44f 1c80 	mov.w	ip, #1048576	; 0x100000
     bcc:	ea4c 3111 	orr.w	r1, ip, r1, lsr #12
     bd0:	d002      	beq.n	bd8 <__adddf3+0x70>
     bd2:	4240      	negs	r0, r0
     bd4:	eb61 0141 	sbc.w	r1, r1, r1, lsl #1
     bd8:	f013 4f00 	tst.w	r3, #2147483648	; 0x80000000
     bdc:	ea4f 3303 	mov.w	r3, r3, lsl #12
     be0:	ea4c 3313 	orr.w	r3, ip, r3, lsr #12
     be4:	d002      	beq.n	bec <__adddf3+0x84>
     be6:	4252      	negs	r2, r2
     be8:	eb63 0343 	sbc.w	r3, r3, r3, lsl #1
     bec:	ea94 0f05 	teq	r4, r5
     bf0:	f000 80a7 	beq.w	d42 <__adddf3+0x1da>
     bf4:	f1a4 0401 	sub.w	r4, r4, #1
     bf8:	f1d5 0e20 	rsbs	lr, r5, #32
     bfc:	db0d      	blt.n	c1a <__adddf3+0xb2>
     bfe:	fa02 fc0e 	lsl.w	ip, r2, lr
     c02:	fa22 f205 	lsr.w	r2, r2, r5
     c06:	1880      	adds	r0, r0, r2
     c08:	f141 0100 	adc.w	r1, r1, #0
     c0c:	fa03 f20e 	lsl.w	r2, r3, lr
     c10:	1880      	adds	r0, r0, r2
     c12:	fa43 f305 	asr.w	r3, r3, r5
     c16:	4159      	adcs	r1, r3
     c18:	e00e      	b.n	c38 <__adddf3+0xd0>
     c1a:	f1a5 0520 	sub.w	r5, r5, #32
     c1e:	f10e 0e20 	add.w	lr, lr, #32
     c22:	2a01      	cmp	r2, #1
     c24:	fa03 fc0e 	lsl.w	ip, r3, lr
     c28:	bf28      	it	cs
     c2a:	f04c 0c02 	orrcs.w	ip, ip, #2
     c2e:	fa43 f305 	asr.w	r3, r3, r5
     c32:	18c0      	adds	r0, r0, r3
     c34:	eb51 71e3 	adcs.w	r1, r1, r3, asr #31
     c38:	f001 4500 	and.w	r5, r1, #2147483648	; 0x80000000
     c3c:	d507      	bpl.n	c4e <__adddf3+0xe6>
     c3e:	f04f 0e00 	mov.w	lr, #0
     c42:	f1dc 0c00 	rsbs	ip, ip, #0
     c46:	eb7e 0000 	sbcs.w	r0, lr, r0
     c4a:	eb6e 0101 	sbc.w	r1, lr, r1
     c4e:	f5b1 1f80 	cmp.w	r1, #1048576	; 0x100000
     c52:	d31b      	bcc.n	c8c <__adddf3+0x124>
     c54:	f5b1 1f00 	cmp.w	r1, #2097152	; 0x200000
     c58:	d30c      	bcc.n	c74 <__adddf3+0x10c>
     c5a:	0849      	lsrs	r1, r1, #1
     c5c:	ea5f 0030 	movs.w	r0, r0, rrx
     c60:	ea4f 0c3c 	mov.w	ip, ip, rrx
     c64:	f104 0401 	add.w	r4, r4, #1
     c68:	ea4f 5244 	mov.w	r2, r4, lsl #21
     c6c:	f512 0f80 	cmn.w	r2, #4194304	; 0x400000
     c70:	f080 809a 	bcs.w	da8 <__adddf3+0x240>
     c74:	f1bc 4f00 	cmp.w	ip, #2147483648	; 0x80000000
     c78:	bf08      	it	eq
     c7a:	ea5f 0c50 	movseq.w	ip, r0, lsr #1
     c7e:	f150 0000 	adcs.w	r0, r0, #0
     c82:	eb41 5104 	adc.w	r1, r1, r4, lsl #20
     c86:	ea41 0105 	orr.w	r1, r1, r5
     c8a:	bd30      	pop	{r4, r5, pc}
     c8c:	ea5f 0c4c 	movs.w	ip, ip, lsl #1
     c90:	4140      	adcs	r0, r0
     c92:	eb41 0101 	adc.w	r1, r1, r1
     c96:	f411 1f80 	tst.w	r1, #1048576	; 0x100000
     c9a:	f1a4 0401 	sub.w	r4, r4, #1
     c9e:	d1e9      	bne.n	c74 <__adddf3+0x10c>
     ca0:	f091 0f00 	teq	r1, #0
     ca4:	bf04      	itt	eq
     ca6:	4601      	moveq	r1, r0
     ca8:	2000      	moveq	r0, #0
     caa:	fab1 f381 	clz	r3, r1
     cae:	bf08      	it	eq
     cb0:	3320      	addeq	r3, #32
     cb2:	f1a3 030b 	sub.w	r3, r3, #11
     cb6:	f1b3 0220 	subs.w	r2, r3, #32
     cba:	da0c      	bge.n	cd6 <__adddf3+0x16e>
     cbc:	320c      	adds	r2, #12
     cbe:	dd08      	ble.n	cd2 <__adddf3+0x16a>
     cc0:	f102 0c14 	add.w	ip, r2, #20
     cc4:	f1c2 020c 	rsb	r2, r2, #12
     cc8:	fa01 f00c 	lsl.w	r0, r1, ip
     ccc:	fa21 f102 	lsr.w	r1, r1, r2
     cd0:	e00c      	b.n	cec <__adddf3+0x184>
     cd2:	f102 0214 	add.w	r2, r2, #20
     cd6:	bfd8      	it	le
     cd8:	f1c2 0c20 	rsble	ip, r2, #32
     cdc:	fa01 f102 	lsl.w	r1, r1, r2
     ce0:	fa20 fc0c 	lsr.w	ip, r0, ip
     ce4:	bfdc      	itt	le
     ce6:	ea41 010c 	orrle.w	r1, r1, ip
     cea:	4090      	lslle	r0, r2
     cec:	1ae4      	subs	r4, r4, r3
     cee:	bfa2      	ittt	ge
     cf0:	eb01 5104 	addge.w	r1, r1, r4, lsl #20
     cf4:	4329      	orrge	r1, r5
     cf6:	bd30      	popge	{r4, r5, pc}
     cf8:	ea6f 0404 	mvn.w	r4, r4
     cfc:	3c1f      	subs	r4, #31
     cfe:	da1c      	bge.n	d3a <__adddf3+0x1d2>
     d00:	340c      	adds	r4, #12
     d02:	dc0e      	bgt.n	d22 <__adddf3+0x1ba>
     d04:	f104 0414 	add.w	r4, r4, #20
     d08:	f1c4 0220 	rsb	r2, r4, #32
     d0c:	fa20 f004 	lsr.w	r0, r0, r4
     d10:	fa01 f302 	lsl.w	r3, r1, r2
     d14:	ea40 0003 	orr.w	r0, r0, r3
     d18:	fa21 f304 	lsr.w	r3, r1, r4
     d1c:	ea45 0103 	orr.w	r1, r5, r3
     d20:	bd30      	pop	{r4, r5, pc}
     d22:	f1c4 040c 	rsb	r4, r4, #12
     d26:	f1c4 0220 	rsb	r2, r4, #32
     d2a:	fa20 f002 	lsr.w	r0, r0, r2
     d2e:	fa01 f304 	lsl.w	r3, r1, r4
     d32:	ea40 0003 	orr.w	r0, r0, r3
     d36:	4629      	mov	r1, r5
     d38:	bd30      	pop	{r4, r5, pc}
     d3a:	fa21 f004 	lsr.w	r0, r1, r4
     d3e:	4629      	mov	r1, r5
     d40:	bd30      	pop	{r4, r5, pc}
     d42:	f094 0f00 	teq	r4, #0
     d46:	f483 1380 	eor.w	r3, r3, #1048576	; 0x100000
     d4a:	bf06      	itte	eq
     d4c:	f481 1180 	eoreq.w	r1, r1, #1048576	; 0x100000
     d50:	3401      	addeq	r4, #1
     d52:	3d01      	subne	r5, #1
     d54:	e74e      	b.n	bf4 <__adddf3+0x8c>
     d56:	ea7f 5c64 	mvns.w	ip, r4, asr #21
     d5a:	bf18      	it	ne
     d5c:	ea7f 5c65 	mvnsne.w	ip, r5, asr #21
     d60:	d029      	beq.n	db6 <__adddf3+0x24e>
     d62:	ea94 0f05 	teq	r4, r5
     d66:	bf08      	it	eq
     d68:	ea90 0f02 	teqeq	r0, r2
     d6c:	d005      	beq.n	d7a <__adddf3+0x212>
     d6e:	ea54 0c00 	orrs.w	ip, r4, r0
     d72:	bf04      	itt	eq
     d74:	4619      	moveq	r1, r3
     d76:	4610      	moveq	r0, r2
     d78:	bd30      	pop	{r4, r5, pc}
     d7a:	ea91 0f03 	teq	r1, r3
     d7e:	bf1e      	ittt	ne
     d80:	2100      	movne	r1, #0
     d82:	2000      	movne	r0, #0
     d84:	bd30      	popne	{r4, r5, pc}
     d86:	ea5f 5c54 	movs.w	ip, r4, lsr #21
     d8a:	d105      	bne.n	d98 <__adddf3+0x230>
     d8c:	0040      	lsls	r0, r0, #1
     d8e:	4149      	adcs	r1, r1
     d90:	bf28      	it	cs
     d92:	f041 4100 	orrcs.w	r1, r1, #2147483648	; 0x80000000
     d96:	bd30      	pop	{r4, r5, pc}
     d98:	f514 0480 	adds.w	r4, r4, #4194304	; 0x400000
     d9c:	bf3c      	itt	cc
     d9e:	f501 1180 	addcc.w	r1, r1, #1048576	; 0x100000
     da2:	bd30      	popcc	{r4, r5, pc}
     da4:	f001 4500 	and.w	r5, r1, #2147483648	; 0x80000000
     da8:	f045 41fe 	orr.w	r1, r5, #2130706432	; 0x7f000000
     dac:	f441 0170 	orr.w	r1, r1, #15728640	; 0xf00000
     db0:	f04f 0000 	mov.w	r0, #0
     db4:	bd30      	pop	{r4, r5, pc}
     db6:	ea7f 5c64 	mvns.w	ip, r4, asr #21
     dba:	bf1a      	itte	ne
     dbc:	4619      	movne	r1, r3
     dbe:	4610      	movne	r0, r2
     dc0:	ea7f 5c65 	mvnseq.w	ip, r5, asr #21
     dc4:	bf1c      	itt	ne
     dc6:	460b      	movne	r3, r1
     dc8:	4602      	movne	r2, r0
     dca:	ea50 3401 	orrs.w	r4, r0, r1, lsl #12
     dce:	bf06      	itte	eq
     dd0:	ea52 3503 	orrseq.w	r5, r2, r3, lsl #12
     dd4:	ea91 0f03 	teqeq	r1, r3
     dd8:	f441 2100 	orrne.w	r1, r1, #524288	; 0x80000
     ddc:	bd30      	pop	{r4, r5, pc}
     dde:	bf00      	nop

00000de0 <__aeabi_ui2d>:
     de0:	f090 0f00 	teq	r0, #0
     de4:	bf04      	itt	eq
     de6:	2100      	moveq	r1, #0
     de8:	4770      	bxeq	lr
     dea:	b530      	push	{r4, r5, lr}
     dec:	f44f 6480 	mov.w	r4, #1024	; 0x400
     df0:	f104 0432 	add.w	r4, r4, #50	; 0x32
     df4:	f04f 0500 	mov.w	r5, #0
     df8:	f04f 0100 	mov.w	r1, #0
     dfc:	e750      	b.n	ca0 <__adddf3+0x138>
     dfe:	bf00      	nop

00000e00 <__aeabi_i2d>:
     e00:	f090 0f00 	teq	r0, #0
     e04:	bf04      	itt	eq
     e06:	2100      	moveq	r1, #0
     e08:	4770      	bxeq	lr
     e0a:	b530      	push	{r4, r5, lr}
     e0c:	f44f 6480 	mov.w	r4, #1024	; 0x400
     e10:	f104 0432 	add.w	r4, r4, #50	; 0x32
     e14:	f010 4500 	ands.w	r5, r0, #2147483648	; 0x80000000
     e18:	bf48      	it	mi
     e1a:	4240      	negmi	r0, r0
     e1c:	f04f 0100 	mov.w	r1, #0
     e20:	e73e      	b.n	ca0 <__adddf3+0x138>
     e22:	bf00      	nop

00000e24 <__aeabi_f2d>:
     e24:	0042      	lsls	r2, r0, #1
     e26:	ea4f 01e2 	mov.w	r1, r2, asr #3
     e2a:	ea4f 0131 	mov.w	r1, r1, rrx
     e2e:	ea4f 7002 	mov.w	r0, r2, lsl #28
     e32:	bf1f      	itttt	ne
     e34:	f012 437f 	andsne.w	r3, r2, #4278190080	; 0xff000000
     e38:	f093 4f7f 	teqne	r3, #4278190080	; 0xff000000
     e3c:	f081 5160 	eorne.w	r1, r1, #939524096	; 0x38000000
     e40:	4770      	bxne	lr
     e42:	f092 0f00 	teq	r2, #0
     e46:	bf14      	ite	ne
     e48:	f093 4f7f 	teqne	r3, #4278190080	; 0xff000000
     e4c:	4770      	bxeq	lr
     e4e:	b530      	push	{r4, r5, lr}
     e50:	f44f 7460 	mov.w	r4, #896	; 0x380
     e54:	f001 4500 	and.w	r5, r1, #2147483648	; 0x80000000
     e58:	f021 4100 	bic.w	r1, r1, #2147483648	; 0x80000000
     e5c:	e720      	b.n	ca0 <__adddf3+0x138>
     e5e:	bf00      	nop

00000e60 <__aeabi_ul2d>:
     e60:	ea50 0201 	orrs.w	r2, r0, r1
     e64:	bf08      	it	eq
     e66:	4770      	bxeq	lr
     e68:	b530      	push	{r4, r5, lr}
     e6a:	f04f 0500 	mov.w	r5, #0
     e6e:	e00a      	b.n	e86 <__aeabi_l2d+0x16>

00000e70 <__aeabi_l2d>:
     e70:	ea50 0201 	orrs.w	r2, r0, r1
     e74:	bf08      	it	eq
     e76:	4770      	bxeq	lr
     e78:	b530      	push	{r4, r5, lr}
     e7a:	f011 4500 	ands.w	r5, r1, #2147483648	; 0x80000000
     e7e:	d502      	bpl.n	e86 <__aeabi_l2d+0x16>
     e80:	4240      	negs	r0, r0
     e82:	eb61 0141 	sbc.w	r1, r1, r1, lsl #1
     e86:	f44f 6480 	mov.w	r4, #1024	; 0x400
     e8a:	f104 0432 	add.w	r4, r4, #50	; 0x32
     e8e:	ea5f 5c91 	movs.w	ip, r1, lsr #22
     e92:	f43f aedc 	beq.w	c4e <__adddf3+0xe6>
     e96:	f04f 0203 	mov.w	r2, #3
     e9a:	ea5f 0cdc 	movs.w	ip, ip, lsr #3
     e9e:	bf18      	it	ne
     ea0:	3203      	addne	r2, #3
     ea2:	ea5f 0cdc 	movs.w	ip, ip, lsr #3
     ea6:	bf18      	it	ne
     ea8:	3203      	addne	r2, #3
     eaa:	eb02 02dc 	add.w	r2, r2, ip, lsr #3
     eae:	f1c2 0320 	rsb	r3, r2, #32
     eb2:	fa00 fc03 	lsl.w	ip, r0, r3
     eb6:	fa20 f002 	lsr.w	r0, r0, r2
     eba:	fa01 fe03 	lsl.w	lr, r1, r3
     ebe:	ea40 000e 	orr.w	r0, r0, lr
     ec2:	fa21 f102 	lsr.w	r1, r1, r2
     ec6:	4414      	add	r4, r2
     ec8:	e6c1      	b.n	c4e <__adddf3+0xe6>
     eca:	bf00      	nop

00000ecc <__aeabi_dmul>:
     ecc:	b570      	push	{r4, r5, r6, lr}
     ece:	f04f 0cff 	mov.w	ip, #255	; 0xff
     ed2:	f44c 6ce0 	orr.w	ip, ip, #1792	; 0x700
     ed6:	ea1c 5411 	ands.w	r4, ip, r1, lsr #20
     eda:	bf1d      	ittte	ne
     edc:	ea1c 5513 	andsne.w	r5, ip, r3, lsr #20
     ee0:	ea94 0f0c 	teqne	r4, ip
     ee4:	ea95 0f0c 	teqne	r5, ip
     ee8:	f000 f8de 	bleq	10a8 <__aeabi_dmul+0x1dc>
     eec:	442c      	add	r4, r5
     eee:	ea81 0603 	eor.w	r6, r1, r3
     ef2:	ea21 514c 	bic.w	r1, r1, ip, lsl #21
     ef6:	ea23 534c 	bic.w	r3, r3, ip, lsl #21
     efa:	ea50 3501 	orrs.w	r5, r0, r1, lsl #12
     efe:	bf18      	it	ne
     f00:	ea52 3503 	orrsne.w	r5, r2, r3, lsl #12
     f04:	f441 1180 	orr.w	r1, r1, #1048576	; 0x100000
     f08:	f443 1380 	orr.w	r3, r3, #1048576	; 0x100000
     f0c:	d038      	beq.n	f80 <__aeabi_dmul+0xb4>
     f0e:	fba0 ce02 	umull	ip, lr, r0, r2
     f12:	f04f 0500 	mov.w	r5, #0
     f16:	fbe1 e502 	umlal	lr, r5, r1, r2
     f1a:	f006 4200 	and.w	r2, r6, #2147483648	; 0x80000000
     f1e:	fbe0 e503 	umlal	lr, r5, r0, r3
     f22:	f04f 0600 	mov.w	r6, #0
     f26:	fbe1 5603 	umlal	r5, r6, r1, r3
     f2a:	f09c 0f00 	teq	ip, #0
     f2e:	bf18      	it	ne
     f30:	f04e 0e01 	orrne.w	lr, lr, #1
     f34:	f1a4 04ff 	sub.w	r4, r4, #255	; 0xff
     f38:	f5b6 7f00 	cmp.w	r6, #512	; 0x200
     f3c:	f564 7440 	sbc.w	r4, r4, #768	; 0x300
     f40:	d204      	bcs.n	f4c <__aeabi_dmul+0x80>
     f42:	ea5f 0e4e 	movs.w	lr, lr, lsl #1
     f46:	416d      	adcs	r5, r5
     f48:	eb46 0606 	adc.w	r6, r6, r6
     f4c:	ea42 21c6 	orr.w	r1, r2, r6, lsl #11
     f50:	ea41 5155 	orr.w	r1, r1, r5, lsr #21
     f54:	ea4f 20c5 	mov.w	r0, r5, lsl #11
     f58:	ea40 505e 	orr.w	r0, r0, lr, lsr #21
     f5c:	ea4f 2ece 	mov.w	lr, lr, lsl #11
     f60:	f1b4 0cfd 	subs.w	ip, r4, #253	; 0xfd
     f64:	bf88      	it	hi
     f66:	f5bc 6fe0 	cmphi.w	ip, #1792	; 0x700
     f6a:	d81e      	bhi.n	faa <__aeabi_dmul+0xde>
     f6c:	f1be 4f00 	cmp.w	lr, #2147483648	; 0x80000000
     f70:	bf08      	it	eq
     f72:	ea5f 0e50 	movseq.w	lr, r0, lsr #1
     f76:	f150 0000 	adcs.w	r0, r0, #0
     f7a:	eb41 5104 	adc.w	r1, r1, r4, lsl #20
     f7e:	bd70      	pop	{r4, r5, r6, pc}
     f80:	f006 4600 	and.w	r6, r6, #2147483648	; 0x80000000
     f84:	ea46 0101 	orr.w	r1, r6, r1
     f88:	ea40 0002 	orr.w	r0, r0, r2
     f8c:	ea81 0103 	eor.w	r1, r1, r3
     f90:	ebb4 045c 	subs.w	r4, r4, ip, lsr #1
     f94:	bfc2      	ittt	gt
     f96:	ebd4 050c 	rsbsgt	r5, r4, ip
     f9a:	ea41 5104 	orrgt.w	r1, r1, r4, lsl #20
     f9e:	bd70      	popgt	{r4, r5, r6, pc}
     fa0:	f441 1180 	orr.w	r1, r1, #1048576	; 0x100000
     fa4:	f04f 0e00 	mov.w	lr, #0
     fa8:	3c01      	subs	r4, #1
     faa:	f300 80ab 	bgt.w	1104 <__aeabi_dmul+0x238>
     fae:	f114 0f36 	cmn.w	r4, #54	; 0x36
     fb2:	bfde      	ittt	le
     fb4:	2000      	movle	r0, #0
     fb6:	f001 4100 	andle.w	r1, r1, #2147483648	; 0x80000000
     fba:	bd70      	pople	{r4, r5, r6, pc}
     fbc:	f1c4 0400 	rsb	r4, r4, #0
     fc0:	3c20      	subs	r4, #32
     fc2:	da35      	bge.n	1030 <__aeabi_dmul+0x164>
     fc4:	340c      	adds	r4, #12
     fc6:	dc1b      	bgt.n	1000 <__aeabi_dmul+0x134>
     fc8:	f104 0414 	add.w	r4, r4, #20
     fcc:	f1c4 0520 	rsb	r5, r4, #32
     fd0:	fa00 f305 	lsl.w	r3, r0, r5
     fd4:	fa20 f004 	lsr.w	r0, r0, r4
     fd8:	fa01 f205 	lsl.w	r2, r1, r5
     fdc:	ea40 0002 	orr.w	r0, r0, r2
     fe0:	f001 4200 	and.w	r2, r1, #2147483648	; 0x80000000
     fe4:	f021 4100 	bic.w	r1, r1, #2147483648	; 0x80000000
     fe8:	eb10 70d3 	adds.w	r0, r0, r3, lsr #31
     fec:	fa21 f604 	lsr.w	r6, r1, r4
     ff0:	eb42 0106 	adc.w	r1, r2, r6
     ff4:	ea5e 0e43 	orrs.w	lr, lr, r3, lsl #1
     ff8:	bf08      	it	eq
     ffa:	ea20 70d3 	biceq.w	r0, r0, r3, lsr #31
     ffe:	bd70      	pop	{r4, r5, r6, pc}
    1000:	f1c4 040c 	rsb	r4, r4, #12
    1004:	f1c4 0520 	rsb	r5, r4, #32
    1008:	fa00 f304 	lsl.w	r3, r0, r4
    100c:	fa20 f005 	lsr.w	r0, r0, r5
    1010:	fa01 f204 	lsl.w	r2, r1, r4
    1014:	ea40 0002 	orr.w	r0, r0, r2
    1018:	f001 4100 	and.w	r1, r1, #2147483648	; 0x80000000
    101c:	eb10 70d3 	adds.w	r0, r0, r3, lsr #31
    1020:	f141 0100 	adc.w	r1, r1, #0
    1024:	ea5e 0e43 	orrs.w	lr, lr, r3, lsl #1
    1028:	bf08      	it	eq
    102a:	ea20 70d3 	biceq.w	r0, r0, r3, lsr #31
    102e:	bd70      	pop	{r4, r5, r6, pc}
    1030:	f1c4 0520 	rsb	r5, r4, #32
    1034:	fa00 f205 	lsl.w	r2, r0, r5
    1038:	ea4e 0e02 	orr.w	lr, lr, r2
    103c:	fa20 f304 	lsr.w	r3, r0, r4
    1040:	fa01 f205 	lsl.w	r2, r1, r5
    1044:	ea43 0302 	orr.w	r3, r3, r2
    1048:	fa21 f004 	lsr.w	r0, r1, r4
    104c:	f001 4100 	and.w	r1, r1, #2147483648	; 0x80000000
    1050:	fa21 f204 	lsr.w	r2, r1, r4
    1054:	ea20 0002 	bic.w	r0, r0, r2
    1058:	eb00 70d3 	add.w	r0, r0, r3, lsr #31
    105c:	ea5e 0e43 	orrs.w	lr, lr, r3, lsl #1
    1060:	bf08      	it	eq
    1062:	ea20 70d3 	biceq.w	r0, r0, r3, lsr #31
    1066:	bd70      	pop	{r4, r5, r6, pc}
    1068:	f094 0f00 	teq	r4, #0
    106c:	d10f      	bne.n	108e <__aeabi_dmul+0x1c2>
    106e:	f001 4600 	and.w	r6, r1, #2147483648	; 0x80000000
    1072:	0040      	lsls	r0, r0, #1
    1074:	eb41 0101 	adc.w	r1, r1, r1
    1078:	f411 1f80 	tst.w	r1, #1048576	; 0x100000
    107c:	bf08      	it	eq
    107e:	3c01      	subeq	r4, #1
    1080:	d0f7      	beq.n	1072 <__aeabi_dmul+0x1a6>
    1082:	ea41 0106 	orr.w	r1, r1, r6
    1086:	f095 0f00 	teq	r5, #0
    108a:	bf18      	it	ne
    108c:	4770      	bxne	lr
    108e:	f003 4600 	and.w	r6, r3, #2147483648	; 0x80000000
    1092:	0052      	lsls	r2, r2, #1
    1094:	eb43 0303 	adc.w	r3, r3, r3
    1098:	f413 1f80 	tst.w	r3, #1048576	; 0x100000
    109c:	bf08      	it	eq
    109e:	3d01      	subeq	r5, #1
    10a0:	d0f7      	beq.n	1092 <__aeabi_dmul+0x1c6>
    10a2:	ea43 0306 	orr.w	r3, r3, r6
    10a6:	4770      	bx	lr
    10a8:	ea94 0f0c 	teq	r4, ip
    10ac:	ea0c 5513 	and.w	r5, ip, r3, lsr #20
    10b0:	bf18      	it	ne
    10b2:	ea95 0f0c 	teqne	r5, ip
    10b6:	d00c      	beq.n	10d2 <__aeabi_dmul+0x206>
    10b8:	ea50 0641 	orrs.w	r6, r0, r1, lsl #1
    10bc:	bf18      	it	ne
    10be:	ea52 0643 	orrsne.w	r6, r2, r3, lsl #1
    10c2:	d1d1      	bne.n	1068 <__aeabi_dmul+0x19c>
    10c4:	ea81 0103 	eor.w	r1, r1, r3
    10c8:	f001 4100 	and.w	r1, r1, #2147483648	; 0x80000000
    10cc:	f04f 0000 	mov.w	r0, #0
    10d0:	bd70      	pop	{r4, r5, r6, pc}
    10d2:	ea50 0641 	orrs.w	r6, r0, r1, lsl #1
    10d6:	bf06      	itte	eq
    10d8:	4610      	moveq	r0, r2
    10da:	4619      	moveq	r1, r3
    10dc:	ea52 0643 	orrsne.w	r6, r2, r3, lsl #1
    10e0:	d019      	beq.n	1116 <__aeabi_dmul+0x24a>
    10e2:	ea94 0f0c 	teq	r4, ip
    10e6:	d102      	bne.n	10ee <__aeabi_dmul+0x222>
    10e8:	ea50 3601 	orrs.w	r6, r0, r1, lsl #12
    10ec:	d113      	bne.n	1116 <__aeabi_dmul+0x24a>
    10ee:	ea95 0f0c 	teq	r5, ip
    10f2:	d105      	bne.n	1100 <__aeabi_dmul+0x234>
    10f4:	ea52 3603 	orrs.w	r6, r2, r3, lsl #12
    10f8:	bf1c      	itt	ne
    10fa:	4610      	movne	r0, r2
    10fc:	4619      	movne	r1, r3
    10fe:	d10a      	bne.n	1116 <__aeabi_dmul+0x24a>
    1100:	ea81 0103 	eor.w	r1, r1, r3
    1104:	f001 4100 	and.w	r1, r1, #2147483648	; 0x80000000
    1108:	f041 41fe 	orr.w	r1, r1, #2130706432	; 0x7f000000
    110c:	f441 0170 	orr.w	r1, r1, #15728640	; 0xf00000
    1110:	f04f 0000 	mov.w	r0, #0
    1114:	bd70      	pop	{r4, r5, r6, pc}
    1116:	f041 41fe 	orr.w	r1, r1, #2130706432	; 0x7f000000
    111a:	f441 0178 	orr.w	r1, r1, #16252928	; 0xf80000
    111e:	bd70      	pop	{r4, r5, r6, pc}

00001120 <__aeabi_ddiv>:
    1120:	b570      	push	{r4, r5, r6, lr}
    1122:	f04f 0cff 	mov.w	ip, #255	; 0xff
    1126:	f44c 6ce0 	orr.w	ip, ip, #1792	; 0x700
    112a:	ea1c 5411 	ands.w	r4, ip, r1, lsr #20
    112e:	bf1d      	ittte	ne
    1130:	ea1c 5513 	andsne.w	r5, ip, r3, lsr #20
    1134:	ea94 0f0c 	teqne	r4, ip
    1138:	ea95 0f0c 	teqne	r5, ip
    113c:	f000 f8a7 	bleq	128e <__aeabi_ddiv+0x16e>
    1140:	eba4 0405 	sub.w	r4, r4, r5
    1144:	ea81 0e03 	eor.w	lr, r1, r3
    1148:	ea52 3503 	orrs.w	r5, r2, r3, lsl #12
    114c:	ea4f 3101 	mov.w	r1, r1, lsl #12
    1150:	f000 8088 	beq.w	1264 <__aeabi_ddiv+0x144>
    1154:	ea4f 3303 	mov.w	r3, r3, lsl #12
    1158:	f04f 5580 	mov.w	r5, #268435456	; 0x10000000
    115c:	ea45 1313 	orr.w	r3, r5, r3, lsr #4
    1160:	ea43 6312 	orr.w	r3, r3, r2, lsr #24
    1164:	ea4f 2202 	mov.w	r2, r2, lsl #8
    1168:	ea45 1511 	orr.w	r5, r5, r1, lsr #4
    116c:	ea45 6510 	orr.w	r5, r5, r0, lsr #24
    1170:	ea4f 2600 	mov.w	r6, r0, lsl #8
    1174:	f00e 4100 	and.w	r1, lr, #2147483648	; 0x80000000
    1178:	429d      	cmp	r5, r3
    117a:	bf08      	it	eq
    117c:	4296      	cmpeq	r6, r2
    117e:	f144 04fd 	adc.w	r4, r4, #253	; 0xfd
    1182:	f504 7440 	add.w	r4, r4, #768	; 0x300
    1186:	d202      	bcs.n	118e <__aeabi_ddiv+0x6e>
    1188:	085b      	lsrs	r3, r3, #1
    118a:	ea4f 0232 	mov.w	r2, r2, rrx
    118e:	1ab6      	subs	r6, r6, r2
    1190:	eb65 0503 	sbc.w	r5, r5, r3
    1194:	085b      	lsrs	r3, r3, #1
    1196:	ea4f 0232 	mov.w	r2, r2, rrx
    119a:	f44f 1080 	mov.w	r0, #1048576	; 0x100000
    119e:	f44f 2c00 	mov.w	ip, #524288	; 0x80000
    11a2:	ebb6 0e02 	subs.w	lr, r6, r2
    11a6:	eb75 0e03 	sbcs.w	lr, r5, r3
    11aa:	bf22      	ittt	cs
    11ac:	1ab6      	subcs	r6, r6, r2
    11ae:	4675      	movcs	r5, lr
    11b0:	ea40 000c 	orrcs.w	r0, r0, ip
    11b4:	085b      	lsrs	r3, r3, #1
    11b6:	ea4f 0232 	mov.w	r2, r2, rrx
    11ba:	ebb6 0e02 	subs.w	lr, r6, r2
    11be:	eb75 0e03 	sbcs.w	lr, r5, r3
    11c2:	bf22      	ittt	cs
    11c4:	1ab6      	subcs	r6, r6, r2
    11c6:	4675      	movcs	r5, lr
    11c8:	ea40 005c 	orrcs.w	r0, r0, ip, lsr #1
    11cc:	085b      	lsrs	r3, r3, #1
    11ce:	ea4f 0232 	mov.w	r2, r2, rrx
    11d2:	ebb6 0e02 	subs.w	lr, r6, r2
    11d6:	eb75 0e03 	sbcs.w	lr, r5, r3
    11da:	bf22      	ittt	cs
    11dc:	1ab6      	subcs	r6, r6, r2
    11de:	4675      	movcs	r5, lr
    11e0:	ea40 009c 	orrcs.w	r0, r0, ip, lsr #2
    11e4:	085b      	lsrs	r3, r3, #1
    11e6:	ea4f 0232 	mov.w	r2, r2, rrx
    11ea:	ebb6 0e02 	subs.w	lr, r6, r2
    11ee:	eb75 0e03 	sbcs.w	lr, r5, r3
    11f2:	bf22      	ittt	cs
    11f4:	1ab6      	subcs	r6, r6, r2
    11f6:	4675      	movcs	r5, lr
    11f8:	ea40 00dc 	orrcs.w	r0, r0, ip, lsr #3
    11fc:	ea55 0e06 	orrs.w	lr, r5, r6
    1200:	d018      	beq.n	1234 <__aeabi_ddiv+0x114>
    1202:	ea4f 1505 	mov.w	r5, r5, lsl #4
    1206:	ea45 7516 	orr.w	r5, r5, r6, lsr #28
    120a:	ea4f 1606 	mov.w	r6, r6, lsl #4
    120e:	ea4f 03c3 	mov.w	r3, r3, lsl #3
    1212:	ea43 7352 	orr.w	r3, r3, r2, lsr #29
    1216:	ea4f 02c2 	mov.w	r2, r2, lsl #3
    121a:	ea5f 1c1c 	movs.w	ip, ip, lsr #4
    121e:	d1c0      	bne.n	11a2 <__aeabi_ddiv+0x82>
    1220:	f411 1f80 	tst.w	r1, #1048576	; 0x100000
    1224:	d10b      	bne.n	123e <__aeabi_ddiv+0x11e>
    1226:	ea41 0100 	orr.w	r1, r1, r0
    122a:	f04f 0000 	mov.w	r0, #0
    122e:	f04f 4c00 	mov.w	ip, #2147483648	; 0x80000000
    1232:	e7b6      	b.n	11a2 <__aeabi_ddiv+0x82>
    1234:	f411 1f80 	tst.w	r1, #1048576	; 0x100000
    1238:	bf04      	itt	eq
    123a:	4301      	orreq	r1, r0
    123c:	2000      	moveq	r0, #0
    123e:	f1b4 0cfd 	subs.w	ip, r4, #253	; 0xfd
    1242:	bf88      	it	hi
    1244:	f5bc 6fe0 	cmphi.w	ip, #1792	; 0x700
    1248:	f63f aeaf 	bhi.w	faa <__aeabi_dmul+0xde>
    124c:	ebb5 0c03 	subs.w	ip, r5, r3
    1250:	bf04      	itt	eq
    1252:	ebb6 0c02 	subseq.w	ip, r6, r2
    1256:	ea5f 0c50 	movseq.w	ip, r0, lsr #1
    125a:	f150 0000 	adcs.w	r0, r0, #0
    125e:	eb41 5104 	adc.w	r1, r1, r4, lsl #20
    1262:	bd70      	pop	{r4, r5, r6, pc}
    1264:	f00e 4e00 	and.w	lr, lr, #2147483648	; 0x80000000
    1268:	ea4e 3111 	orr.w	r1, lr, r1, lsr #12
    126c:	eb14 045c 	adds.w	r4, r4, ip, lsr #1
    1270:	bfc2      	ittt	gt
    1272:	ebd4 050c 	rsbsgt	r5, r4, ip
    1276:	ea41 5104 	orrgt.w	r1, r1, r4, lsl #20
    127a:	bd70      	popgt	{r4, r5, r6, pc}
    127c:	f441 1180 	orr.w	r1, r1, #1048576	; 0x100000
    1280:	f04f 0e00 	mov.w	lr, #0
    1284:	3c01      	subs	r4, #1
    1286:	e690      	b.n	faa <__aeabi_dmul+0xde>
    1288:	ea45 0e06 	orr.w	lr, r5, r6
    128c:	e68d      	b.n	faa <__aeabi_dmul+0xde>
    128e:	ea0c 5513 	and.w	r5, ip, r3, lsr #20
    1292:	ea94 0f0c 	teq	r4, ip
    1296:	bf08      	it	eq
    1298:	ea95 0f0c 	teqeq	r5, ip
    129c:	f43f af3b 	beq.w	1116 <__aeabi_dmul+0x24a>
    12a0:	ea94 0f0c 	teq	r4, ip
    12a4:	d10a      	bne.n	12bc <__aeabi_ddiv+0x19c>
    12a6:	ea50 3401 	orrs.w	r4, r0, r1, lsl #12
    12aa:	f47f af34 	bne.w	1116 <__aeabi_dmul+0x24a>
    12ae:	ea95 0f0c 	teq	r5, ip
    12b2:	f47f af25 	bne.w	1100 <__aeabi_dmul+0x234>
    12b6:	4610      	mov	r0, r2
    12b8:	4619      	mov	r1, r3
    12ba:	e72c      	b.n	1116 <__aeabi_dmul+0x24a>
    12bc:	ea95 0f0c 	teq	r5, ip
    12c0:	d106      	bne.n	12d0 <__aeabi_ddiv+0x1b0>
    12c2:	ea52 3503 	orrs.w	r5, r2, r3, lsl #12
    12c6:	f43f aefd 	beq.w	10c4 <__aeabi_dmul+0x1f8>
    12ca:	4610      	mov	r0, r2
    12cc:	4619      	mov	r1, r3
    12ce:	e722      	b.n	1116 <__aeabi_dmul+0x24a>
    12d0:	ea50 0641 	orrs.w	r6, r0, r1, lsl #1
    12d4:	bf18      	it	ne
    12d6:	ea52 0643 	orrsne.w	r6, r2, r3, lsl #1
    12da:	f47f aec5 	bne.w	1068 <__aeabi_dmul+0x19c>
    12de:	ea50 0441 	orrs.w	r4, r0, r1, lsl #1
    12e2:	f47f af0d 	bne.w	1100 <__aeabi_dmul+0x234>
    12e6:	ea52 0543 	orrs.w	r5, r2, r3, lsl #1
    12ea:	f47f aeeb 	bne.w	10c4 <__aeabi_dmul+0x1f8>
    12ee:	e712      	b.n	1116 <__aeabi_dmul+0x24a>

000012f0 <__gedf2>:
    12f0:	f04f 3cff 	mov.w	ip, #4294967295	; 0xffffffff
    12f4:	e006      	b.n	1304 <__cmpdf2+0x4>
    12f6:	bf00      	nop

000012f8 <__ledf2>:
    12f8:	f04f 0c01 	mov.w	ip, #1
    12fc:	e002      	b.n	1304 <__cmpdf2+0x4>
    12fe:	bf00      	nop

00001300 <__cmpdf2>:
    1300:	f04f 0c01 	mov.w	ip, #1
    1304:	f84d cd04 	str.w	ip, [sp, #-4]!
    1308:	ea4f 0c41 	mov.w	ip, r1, lsl #1
    130c:	ea7f 5c6c 	mvns.w	ip, ip, asr #21
    1310:	ea4f 0c43 	mov.w	ip, r3, lsl #1
    1314:	bf18      	it	ne
    1316:	ea7f 5c6c 	mvnsne.w	ip, ip, asr #21
    131a:	d01b      	beq.n	1354 <__cmpdf2+0x54>
    131c:	b001      	add	sp, #4
    131e:	ea50 0c41 	orrs.w	ip, r0, r1, lsl #1
    1322:	bf0c      	ite	eq
    1324:	ea52 0c43 	orrseq.w	ip, r2, r3, lsl #1
    1328:	ea91 0f03 	teqne	r1, r3
    132c:	bf02      	ittt	eq
    132e:	ea90 0f02 	teqeq	r0, r2
    1332:	2000      	moveq	r0, #0
    1334:	4770      	bxeq	lr
    1336:	f110 0f00 	cmn.w	r0, #0
    133a:	ea91 0f03 	teq	r1, r3
    133e:	bf58      	it	pl
    1340:	4299      	cmppl	r1, r3
    1342:	bf08      	it	eq
    1344:	4290      	cmpeq	r0, r2
    1346:	bf2c      	ite	cs
    1348:	17d8      	asrcs	r0, r3, #31
    134a:	ea6f 70e3 	mvncc.w	r0, r3, asr #31
    134e:	f040 0001 	orr.w	r0, r0, #1
    1352:	4770      	bx	lr
    1354:	ea4f 0c41 	mov.w	ip, r1, lsl #1
    1358:	ea7f 5c6c 	mvns.w	ip, ip, asr #21
    135c:	d102      	bne.n	1364 <__cmpdf2+0x64>
    135e:	ea50 3c01 	orrs.w	ip, r0, r1, lsl #12
    1362:	d107      	bne.n	1374 <__cmpdf2+0x74>
    1364:	ea4f 0c43 	mov.w	ip, r3, lsl #1
    1368:	ea7f 5c6c 	mvns.w	ip, ip, asr #21
    136c:	d1d6      	bne.n	131c <__cmpdf2+0x1c>
    136e:	ea52 3c03 	orrs.w	ip, r2, r3, lsl #12
    1372:	d0d3      	beq.n	131c <__cmpdf2+0x1c>
    1374:	f85d 0b04 	ldr.w	r0, [sp], #4
    1378:	4770      	bx	lr
    137a:	bf00      	nop

0000137c <__aeabi_cdrcmple>:
    137c:	4684      	mov	ip, r0
    137e:	4610      	mov	r0, r2
    1380:	4662      	mov	r2, ip
    1382:	468c      	mov	ip, r1
    1384:	4619      	mov	r1, r3
    1386:	4663      	mov	r3, ip
    1388:	e000      	b.n	138c <__aeabi_cdcmpeq>
    138a:	bf00      	nop

0000138c <__aeabi_cdcmpeq>:
    138c:	b501      	push	{r0, lr}
    138e:	f7ff ffb7 	bl	1300 <__cmpdf2>
    1392:	2800      	cmp	r0, #0
    1394:	bf48      	it	mi
    1396:	f110 0f00 	cmnmi.w	r0, #0
    139a:	bd01      	pop	{r0, pc}

0000139c <__aeabi_dcmpeq>:
    139c:	f84d ed08 	str.w	lr, [sp, #-8]!
    13a0:	f7ff fff4 	bl	138c <__aeabi_cdcmpeq>
    13a4:	bf0c      	ite	eq
    13a6:	2001      	moveq	r0, #1
    13a8:	2000      	movne	r0, #0
    13aa:	f85d fb08 	ldr.w	pc, [sp], #8
    13ae:	bf00      	nop

000013b0 <__aeabi_dcmplt>:
    13b0:	f84d ed08 	str.w	lr, [sp, #-8]!
    13b4:	f7ff ffea 	bl	138c <__aeabi_cdcmpeq>
    13b8:	bf34      	ite	cc
    13ba:	2001      	movcc	r0, #1
    13bc:	2000      	movcs	r0, #0
    13be:	f85d fb08 	ldr.w	pc, [sp], #8
    13c2:	bf00      	nop

000013c4 <__aeabi_dcmple>:
    13c4:	f84d ed08 	str.w	lr, [sp, #-8]!
    13c8:	f7ff ffe0 	bl	138c <__aeabi_cdcmpeq>
    13cc:	bf94      	ite	ls
    13ce:	2001      	movls	r0, #1
    13d0:	2000      	movhi	r0, #0
    13d2:	f85d fb08 	ldr.w	pc, [sp], #8
    13d6:	bf00      	nop

000013d8 <__aeabi_dcmpge>:
    13d8:	f84d ed08 	str.w	lr, [sp, #-8]!
    13dc:	f7ff ffce 	bl	137c <__aeabi_cdrcmple>
    13e0:	bf94      	ite	ls
    13e2:	2001      	movls	r0, #1
    13e4:	2000      	movhi	r0, #0
    13e6:	f85d fb08 	ldr.w	pc, [sp], #8
    13ea:	bf00      	nop

000013ec <__aeabi_dcmpgt>:
    13ec:	f84d ed08 	str.w	lr, [sp, #-8]!
    13f0:	f7ff ffc4 	bl	137c <__aeabi_cdrcmple>
    13f4:	bf34      	ite	cc
    13f6:	2001      	movcc	r0, #1
    13f8:	2000      	movcs	r0, #0
    13fa:	f85d fb08 	ldr.w	pc, [sp], #8
    13fe:	bf00      	nop

00001400 <__aeabi_dcmpun>:
    1400:	ea4f 0c41 	mov.w	ip, r1, lsl #1
    1404:	ea7f 5c6c 	mvns.w	ip, ip, asr #21
    1408:	d102      	bne.n	1410 <__aeabi_dcmpun+0x10>
    140a:	ea50 3c01 	orrs.w	ip, r0, r1, lsl #12
    140e:	d10a      	bne.n	1426 <__aeabi_dcmpun+0x26>
    1410:	ea4f 0c43 	mov.w	ip, r3, lsl #1
    1414:	ea7f 5c6c 	mvns.w	ip, ip, asr #21
    1418:	d102      	bne.n	1420 <__aeabi_dcmpun+0x20>
    141a:	ea52 3c03 	orrs.w	ip, r2, r3, lsl #12
    141e:	d102      	bne.n	1426 <__aeabi_dcmpun+0x26>
    1420:	f04f 0000 	mov.w	r0, #0
    1424:	4770      	bx	lr
    1426:	f04f 0001 	mov.w	r0, #1
    142a:	4770      	bx	lr

0000142c <__aeabi_d2iz>:
    142c:	ea4f 0241 	mov.w	r2, r1, lsl #1
    1430:	f512 1200 	adds.w	r2, r2, #2097152	; 0x200000
    1434:	d215      	bcs.n	1462 <__aeabi_d2iz+0x36>
    1436:	d511      	bpl.n	145c <__aeabi_d2iz+0x30>
    1438:	f46f 7378 	mvn.w	r3, #992	; 0x3e0
    143c:	ebb3 5262 	subs.w	r2, r3, r2, asr #21
    1440:	d912      	bls.n	1468 <__aeabi_d2iz+0x3c>
    1442:	ea4f 23c1 	mov.w	r3, r1, lsl #11
    1446:	f043 4300 	orr.w	r3, r3, #2147483648	; 0x80000000
    144a:	ea43 5350 	orr.w	r3, r3, r0, lsr #21
    144e:	f011 4f00 	tst.w	r1, #2147483648	; 0x80000000
    1452:	fa23 f002 	lsr.w	r0, r3, r2
    1456:	bf18      	it	ne
    1458:	4240      	negne	r0, r0
    145a:	4770      	bx	lr
    145c:	f04f 0000 	mov.w	r0, #0
    1460:	4770      	bx	lr
    1462:	ea50 3001 	orrs.w	r0, r0, r1, lsl #12
    1466:	d105      	bne.n	1474 <__aeabi_d2iz+0x48>
    1468:	f011 4000 	ands.w	r0, r1, #2147483648	; 0x80000000
    146c:	bf08      	it	eq
    146e:	f06f 4000 	mvneq.w	r0, #2147483648	; 0x80000000
    1472:	4770      	bx	lr
    1474:	f04f 0000 	mov.w	r0, #0
    1478:	4770      	bx	lr
    147a:	bf00      	nop

0000147c <__aeabi_uldivmod>:
    147c:	b953      	cbnz	r3, 1494 <__aeabi_uldivmod+0x18>
    147e:	b94a      	cbnz	r2, 1494 <__aeabi_uldivmod+0x18>
    1480:	2900      	cmp	r1, #0
    1482:	bf08      	it	eq
    1484:	2800      	cmpeq	r0, #0
    1486:	bf1c      	itt	ne
    1488:	f04f 31ff 	movne.w	r1, #4294967295	; 0xffffffff
    148c:	f04f 30ff 	movne.w	r0, #4294967295	; 0xffffffff
    1490:	f000 b97a 	b.w	1788 <__aeabi_idiv0>
    1494:	f1ad 0c08 	sub.w	ip, sp, #8
    1498:	e96d ce04 	strd	ip, lr, [sp, #-16]!
    149c:	f000 f806 	bl	14ac <__udivmoddi4>
    14a0:	f8dd e004 	ldr.w	lr, [sp, #4]
    14a4:	e9dd 2302 	ldrd	r2, r3, [sp, #8]
    14a8:	b004      	add	sp, #16
    14aa:	4770      	bx	lr

000014ac <__udivmoddi4>:
    14ac:	e92d 47f0 	stmdb	sp!, {r4, r5, r6, r7, r8, r9, sl, lr}
    14b0:	468c      	mov	ip, r1
    14b2:	460d      	mov	r5, r1
    14b4:	4604      	mov	r4, r0
    14b6:	9e08      	ldr	r6, [sp, #32]
    14b8:	2b00      	cmp	r3, #0
    14ba:	d151      	bne.n	1560 <__udivmoddi4+0xb4>
    14bc:	428a      	cmp	r2, r1
    14be:	4617      	mov	r7, r2
    14c0:	d96d      	bls.n	159e <__udivmoddi4+0xf2>
    14c2:	fab2 fe82 	clz	lr, r2
    14c6:	f1be 0f00 	cmp.w	lr, #0
    14ca:	d00b      	beq.n	14e4 <__udivmoddi4+0x38>
    14cc:	f1ce 0c20 	rsb	ip, lr, #32
    14d0:	fa01 f50e 	lsl.w	r5, r1, lr
    14d4:	fa20 fc0c 	lsr.w	ip, r0, ip
    14d8:	fa02 f70e 	lsl.w	r7, r2, lr
    14dc:	ea4c 0c05 	orr.w	ip, ip, r5
    14e0:	fa00 f40e 	lsl.w	r4, r0, lr
    14e4:	ea4f 4a17 	mov.w	sl, r7, lsr #16
    14e8:	0c25      	lsrs	r5, r4, #16
    14ea:	fbbc f8fa 	udiv	r8, ip, sl
    14ee:	fa1f f987 	uxth.w	r9, r7
    14f2:	fb0a cc18 	mls	ip, sl, r8, ip
    14f6:	ea45 450c 	orr.w	r5, r5, ip, lsl #16
    14fa:	fb08 f309 	mul.w	r3, r8, r9
    14fe:	42ab      	cmp	r3, r5
    1500:	d90a      	bls.n	1518 <__udivmoddi4+0x6c>
    1502:	19ed      	adds	r5, r5, r7
    1504:	f108 32ff 	add.w	r2, r8, #4294967295	; 0xffffffff
    1508:	f080 8123 	bcs.w	1752 <__udivmoddi4+0x2a6>
    150c:	42ab      	cmp	r3, r5
    150e:	f240 8120 	bls.w	1752 <__udivmoddi4+0x2a6>
    1512:	f1a8 0802 	sub.w	r8, r8, #2
    1516:	443d      	add	r5, r7
    1518:	1aed      	subs	r5, r5, r3
    151a:	b2a4      	uxth	r4, r4
    151c:	fbb5 f0fa 	udiv	r0, r5, sl
    1520:	fb0a 5510 	mls	r5, sl, r0, r5
    1524:	ea44 4405 	orr.w	r4, r4, r5, lsl #16
    1528:	fb00 f909 	mul.w	r9, r0, r9
    152c:	45a1      	cmp	r9, r4
    152e:	d909      	bls.n	1544 <__udivmoddi4+0x98>
    1530:	19e4      	adds	r4, r4, r7
    1532:	f100 33ff 	add.w	r3, r0, #4294967295	; 0xffffffff
    1536:	f080 810a 	bcs.w	174e <__udivmoddi4+0x2a2>
    153a:	45a1      	cmp	r9, r4
    153c:	f240 8107 	bls.w	174e <__udivmoddi4+0x2a2>
    1540:	3802      	subs	r0, #2
    1542:	443c      	add	r4, r7
    1544:	eba4 0409 	sub.w	r4, r4, r9
    1548:	ea40 4008 	orr.w	r0, r0, r8, lsl #16
    154c:	2100      	movs	r1, #0
    154e:	2e00      	cmp	r6, #0
    1550:	d061      	beq.n	1616 <__udivmoddi4+0x16a>
    1552:	fa24 f40e 	lsr.w	r4, r4, lr
    1556:	2300      	movs	r3, #0
    1558:	6034      	str	r4, [r6, #0]
    155a:	6073      	str	r3, [r6, #4]
    155c:	e8bd 87f0 	ldmia.w	sp!, {r4, r5, r6, r7, r8, r9, sl, pc}
    1560:	428b      	cmp	r3, r1
    1562:	d907      	bls.n	1574 <__udivmoddi4+0xc8>
    1564:	2e00      	cmp	r6, #0
    1566:	d054      	beq.n	1612 <__udivmoddi4+0x166>
    1568:	2100      	movs	r1, #0
    156a:	e886 0021 	stmia.w	r6, {r0, r5}
    156e:	4608      	mov	r0, r1
    1570:	e8bd 87f0 	ldmia.w	sp!, {r4, r5, r6, r7, r8, r9, sl, pc}
    1574:	fab3 f183 	clz	r1, r3
    1578:	2900      	cmp	r1, #0
    157a:	f040 808e 	bne.w	169a <__udivmoddi4+0x1ee>
    157e:	42ab      	cmp	r3, r5
    1580:	d302      	bcc.n	1588 <__udivmoddi4+0xdc>
    1582:	4282      	cmp	r2, r0
    1584:	f200 80fa 	bhi.w	177c <__udivmoddi4+0x2d0>
    1588:	1a84      	subs	r4, r0, r2
    158a:	eb65 0503 	sbc.w	r5, r5, r3
    158e:	2001      	movs	r0, #1
    1590:	46ac      	mov	ip, r5
    1592:	2e00      	cmp	r6, #0
    1594:	d03f      	beq.n	1616 <__udivmoddi4+0x16a>
    1596:	e886 1010 	stmia.w	r6, {r4, ip}
    159a:	e8bd 87f0 	ldmia.w	sp!, {r4, r5, r6, r7, r8, r9, sl, pc}
    159e:	b912      	cbnz	r2, 15a6 <__udivmoddi4+0xfa>
    15a0:	2701      	movs	r7, #1
    15a2:	fbb7 f7f2 	udiv	r7, r7, r2
    15a6:	fab7 fe87 	clz	lr, r7
    15aa:	f1be 0f00 	cmp.w	lr, #0
    15ae:	d134      	bne.n	161a <__udivmoddi4+0x16e>
    15b0:	1beb      	subs	r3, r5, r7
    15b2:	0c3a      	lsrs	r2, r7, #16
    15b4:	fa1f fc87 	uxth.w	ip, r7
    15b8:	2101      	movs	r1, #1
    15ba:	fbb3 f8f2 	udiv	r8, r3, r2
    15be:	0c25      	lsrs	r5, r4, #16
    15c0:	fb02 3318 	mls	r3, r2, r8, r3
    15c4:	ea45 4503 	orr.w	r5, r5, r3, lsl #16
    15c8:	fb0c f308 	mul.w	r3, ip, r8
    15cc:	42ab      	cmp	r3, r5
    15ce:	d907      	bls.n	15e0 <__udivmoddi4+0x134>
    15d0:	19ed      	adds	r5, r5, r7
    15d2:	f108 30ff 	add.w	r0, r8, #4294967295	; 0xffffffff
    15d6:	d202      	bcs.n	15de <__udivmoddi4+0x132>
    15d8:	42ab      	cmp	r3, r5
    15da:	f200 80d1 	bhi.w	1780 <__udivmoddi4+0x2d4>
    15de:	4680      	mov	r8, r0
    15e0:	1aed      	subs	r5, r5, r3
    15e2:	b2a3      	uxth	r3, r4
    15e4:	fbb5 f0f2 	udiv	r0, r5, r2
    15e8:	fb02 5510 	mls	r5, r2, r0, r5
    15ec:	ea43 4405 	orr.w	r4, r3, r5, lsl #16
    15f0:	fb0c fc00 	mul.w	ip, ip, r0
    15f4:	45a4      	cmp	ip, r4
    15f6:	d907      	bls.n	1608 <__udivmoddi4+0x15c>
    15f8:	19e4      	adds	r4, r4, r7
    15fa:	f100 33ff 	add.w	r3, r0, #4294967295	; 0xffffffff
    15fe:	d202      	bcs.n	1606 <__udivmoddi4+0x15a>
    1600:	45a4      	cmp	ip, r4
    1602:	f200 80b8 	bhi.w	1776 <__udivmoddi4+0x2ca>
    1606:	4618      	mov	r0, r3
    1608:	eba4 040c 	sub.w	r4, r4, ip
    160c:	ea40 4008 	orr.w	r0, r0, r8, lsl #16
    1610:	e79d      	b.n	154e <__udivmoddi4+0xa2>
    1612:	4631      	mov	r1, r6
    1614:	4630      	mov	r0, r6
    1616:	e8bd 87f0 	ldmia.w	sp!, {r4, r5, r6, r7, r8, r9, sl, pc}
    161a:	f1ce 0420 	rsb	r4, lr, #32
    161e:	fa05 f30e 	lsl.w	r3, r5, lr
    1622:	fa07 f70e 	lsl.w	r7, r7, lr
    1626:	fa20 f804 	lsr.w	r8, r0, r4
    162a:	0c3a      	lsrs	r2, r7, #16
    162c:	fa25 f404 	lsr.w	r4, r5, r4
    1630:	ea48 0803 	orr.w	r8, r8, r3
    1634:	fbb4 f1f2 	udiv	r1, r4, r2
    1638:	ea4f 4518 	mov.w	r5, r8, lsr #16
    163c:	fb02 4411 	mls	r4, r2, r1, r4
    1640:	fa1f fc87 	uxth.w	ip, r7
    1644:	ea45 4504 	orr.w	r5, r5, r4, lsl #16
    1648:	fb01 f30c 	mul.w	r3, r1, ip
    164c:	42ab      	cmp	r3, r5
    164e:	fa00 f40e 	lsl.w	r4, r0, lr
    1652:	d909      	bls.n	1668 <__udivmoddi4+0x1bc>
    1654:	19ed      	adds	r5, r5, r7
    1656:	f101 30ff 	add.w	r0, r1, #4294967295	; 0xffffffff
    165a:	f080 808a 	bcs.w	1772 <__udivmoddi4+0x2c6>
    165e:	42ab      	cmp	r3, r5
    1660:	f240 8087 	bls.w	1772 <__udivmoddi4+0x2c6>
    1664:	3902      	subs	r1, #2
    1666:	443d      	add	r5, r7
    1668:	1aeb      	subs	r3, r5, r3
    166a:	fa1f f588 	uxth.w	r5, r8
    166e:	fbb3 f0f2 	udiv	r0, r3, r2
    1672:	fb02 3310 	mls	r3, r2, r0, r3
    1676:	ea45 4503 	orr.w	r5, r5, r3, lsl #16
    167a:	fb00 f30c 	mul.w	r3, r0, ip
    167e:	42ab      	cmp	r3, r5
    1680:	d907      	bls.n	1692 <__udivmoddi4+0x1e6>
    1682:	19ed      	adds	r5, r5, r7
    1684:	f100 38ff 	add.w	r8, r0, #4294967295	; 0xffffffff
    1688:	d26f      	bcs.n	176a <__udivmoddi4+0x2be>
    168a:	42ab      	cmp	r3, r5
    168c:	d96d      	bls.n	176a <__udivmoddi4+0x2be>
    168e:	3802      	subs	r0, #2
    1690:	443d      	add	r5, r7
    1692:	1aeb      	subs	r3, r5, r3
    1694:	ea40 4101 	orr.w	r1, r0, r1, lsl #16
    1698:	e78f      	b.n	15ba <__udivmoddi4+0x10e>
    169a:	f1c1 0720 	rsb	r7, r1, #32
    169e:	fa22 f807 	lsr.w	r8, r2, r7
    16a2:	408b      	lsls	r3, r1
    16a4:	fa05 f401 	lsl.w	r4, r5, r1
    16a8:	ea48 0303 	orr.w	r3, r8, r3
    16ac:	fa20 fe07 	lsr.w	lr, r0, r7
    16b0:	ea4f 4c13 	mov.w	ip, r3, lsr #16
    16b4:	40fd      	lsrs	r5, r7
    16b6:	ea4e 0e04 	orr.w	lr, lr, r4
    16ba:	fbb5 f9fc 	udiv	r9, r5, ip
    16be:	ea4f 441e 	mov.w	r4, lr, lsr #16
    16c2:	fb0c 5519 	mls	r5, ip, r9, r5
    16c6:	fa1f f883 	uxth.w	r8, r3
    16ca:	ea44 4505 	orr.w	r5, r4, r5, lsl #16
    16ce:	fb09 f408 	mul.w	r4, r9, r8
    16d2:	42ac      	cmp	r4, r5
    16d4:	fa02 f201 	lsl.w	r2, r2, r1
    16d8:	fa00 fa01 	lsl.w	sl, r0, r1
    16dc:	d908      	bls.n	16f0 <__udivmoddi4+0x244>
    16de:	18ed      	adds	r5, r5, r3
    16e0:	f109 30ff 	add.w	r0, r9, #4294967295	; 0xffffffff
    16e4:	d243      	bcs.n	176e <__udivmoddi4+0x2c2>
    16e6:	42ac      	cmp	r4, r5
    16e8:	d941      	bls.n	176e <__udivmoddi4+0x2c2>
    16ea:	f1a9 0902 	sub.w	r9, r9, #2
    16ee:	441d      	add	r5, r3
    16f0:	1b2d      	subs	r5, r5, r4
    16f2:	fa1f fe8e 	uxth.w	lr, lr
    16f6:	fbb5 f0fc 	udiv	r0, r5, ip
    16fa:	fb0c 5510 	mls	r5, ip, r0, r5
    16fe:	ea4e 4405 	orr.w	r4, lr, r5, lsl #16
    1702:	fb00 f808 	mul.w	r8, r0, r8
    1706:	45a0      	cmp	r8, r4
    1708:	d907      	bls.n	171a <__udivmoddi4+0x26e>
    170a:	18e4      	adds	r4, r4, r3
    170c:	f100 35ff 	add.w	r5, r0, #4294967295	; 0xffffffff
    1710:	d229      	bcs.n	1766 <__udivmoddi4+0x2ba>
    1712:	45a0      	cmp	r8, r4
    1714:	d927      	bls.n	1766 <__udivmoddi4+0x2ba>
    1716:	3802      	subs	r0, #2
    1718:	441c      	add	r4, r3
    171a:	ea40 4009 	orr.w	r0, r0, r9, lsl #16
    171e:	eba4 0408 	sub.w	r4, r4, r8
    1722:	fba0 8902 	umull	r8, r9, r0, r2
    1726:	454c      	cmp	r4, r9
    1728:	46c6      	mov	lr, r8
    172a:	464d      	mov	r5, r9
    172c:	d315      	bcc.n	175a <__udivmoddi4+0x2ae>
    172e:	d012      	beq.n	1756 <__udivmoddi4+0x2aa>
    1730:	b156      	cbz	r6, 1748 <__udivmoddi4+0x29c>
    1732:	ebba 030e 	subs.w	r3, sl, lr
    1736:	eb64 0405 	sbc.w	r4, r4, r5
    173a:	fa04 f707 	lsl.w	r7, r4, r7
    173e:	40cb      	lsrs	r3, r1
    1740:	431f      	orrs	r7, r3
    1742:	40cc      	lsrs	r4, r1
    1744:	6037      	str	r7, [r6, #0]
    1746:	6074      	str	r4, [r6, #4]
    1748:	2100      	movs	r1, #0
    174a:	e8bd 87f0 	ldmia.w	sp!, {r4, r5, r6, r7, r8, r9, sl, pc}
    174e:	4618      	mov	r0, r3
    1750:	e6f8      	b.n	1544 <__udivmoddi4+0x98>
    1752:	4690      	mov	r8, r2
    1754:	e6e0      	b.n	1518 <__udivmoddi4+0x6c>
    1756:	45c2      	cmp	sl, r8
    1758:	d2ea      	bcs.n	1730 <__udivmoddi4+0x284>
    175a:	ebb8 0e02 	subs.w	lr, r8, r2
    175e:	eb69 0503 	sbc.w	r5, r9, r3
    1762:	3801      	subs	r0, #1
    1764:	e7e4      	b.n	1730 <__udivmoddi4+0x284>
    1766:	4628      	mov	r0, r5
    1768:	e7d7      	b.n	171a <__udivmoddi4+0x26e>
    176a:	4640      	mov	r0, r8
    176c:	e791      	b.n	1692 <__udivmoddi4+0x1e6>
    176e:	4681      	mov	r9, r0
    1770:	e7be      	b.n	16f0 <__udivmoddi4+0x244>
    1772:	4601      	mov	r1, r0
    1774:	e778      	b.n	1668 <__udivmoddi4+0x1bc>
    1776:	3802      	subs	r0, #2
    1778:	443c      	add	r4, r7
    177a:	e745      	b.n	1608 <__udivmoddi4+0x15c>
    177c:	4608      	mov	r0, r1
    177e:	e708      	b.n	1592 <__udivmoddi4+0xe6>
    1780:	f1a8 0802 	sub.w	r8, r8, #2
    1784:	443d      	add	r5, r7
    1786:	e72b      	b.n	15e0 <__udivmoddi4+0x134>

00001788 <__aeabi_idiv0>:
    1788:	4770      	bx	lr
    178a:	bf00      	nop

0000178c <_ZN4mbed10DigitalOutC1E7PinName>:
public:
    /** Create a DigitalOut connected to the specified pin
     *
     *  @param pin DigitalOut pin to connect to
     */
    DigitalOut(PinName pin) : gpio()
    178c:	b500      	push	{lr}
    178e:	b083      	sub	sp, #12
    1790:	9001      	str	r0, [sp, #4]
    1792:	9100      	str	r1, [sp, #0]
    1794:	9b01      	ldr	r3, [sp, #4]
    1796:	2200      	movs	r2, #0
    1798:	601a      	str	r2, [r3, #0]
    {
        // No lock needed in the constructor
        gpio_init_out(&gpio, pin);
    179a:	9b01      	ldr	r3, [sp, #4]
    179c:	9900      	ldr	r1, [sp, #0]
    179e:	4618      	mov	r0, r3
    17a0:	f000 faaa 	bl	1cf8 <gpio_init_out>
    }
    17a4:	9b01      	ldr	r3, [sp, #4]
    17a6:	4618      	mov	r0, r3
    17a8:	b003      	add	sp, #12
    17aa:	f85d fb04 	ldr.w	pc, [sp], #4
	...

000017b0 <_Z17print_memory_infov>:
#include "mbed.h"
#include "mbed_mem_trace.h"

DigitalOut led1(LED1);

void print_memory_info() {
    17b0:	b500      	push	{lr}
    17b2:	b08b      	sub	sp, #44	; 0x2c
    // allocate enough room for every thread's stack statistics
    int cnt = osThreadGetCount();
    17b4:	f006 fa28 	bl	7c08 <osThreadGetCount>
    17b8:	4603      	mov	r3, r0
    17ba:	9308      	str	r3, [sp, #32]
    mbed_stats_stack_t *stats = (mbed_stats_stack_t*) malloc(cnt * sizeof(mbed_stats_stack_t));
    17bc:	9b08      	ldr	r3, [sp, #32]
    17be:	011b      	lsls	r3, r3, #4
    17c0:	4618      	mov	r0, r3
    17c2:	f009 fb35 	bl	ae30 <malloc>
    17c6:	9007      	str	r0, [sp, #28]

    cnt = mbed_stats_stack_get_each(stats, cnt);
    17c8:	9b08      	ldr	r3, [sp, #32]
    17ca:	4619      	mov	r1, r3
    17cc:	9807      	ldr	r0, [sp, #28]
    17ce:	f002 fa3d 	bl	3c4c <mbed_stats_stack_get_each>
    17d2:	4603      	mov	r3, r0
    17d4:	9308      	str	r3, [sp, #32]
    for (int i = 0; i < cnt; i++) {
    17d6:	2300      	movs	r3, #0
    17d8:	9309      	str	r3, [sp, #36]	; 0x24
    17da:	9a09      	ldr	r2, [sp, #36]	; 0x24
    17dc:	9b08      	ldr	r3, [sp, #32]
    17de:	429a      	cmp	r2, r3
    17e0:	da16      	bge.n	1810 <_Z17print_memory_infov+0x60>
        printf("Thread: 0x%lX, Stack size: %lu / %lu\r\n", stats[i].thread_id, stats[i].max_size, stats[i].reserved_size);
    17e2:	9b09      	ldr	r3, [sp, #36]	; 0x24
    17e4:	011b      	lsls	r3, r3, #4
    17e6:	9a07      	ldr	r2, [sp, #28]
    17e8:	4413      	add	r3, r2
    17ea:	6819      	ldr	r1, [r3, #0]
    17ec:	9b09      	ldr	r3, [sp, #36]	; 0x24
    17ee:	011b      	lsls	r3, r3, #4
    17f0:	9a07      	ldr	r2, [sp, #28]
    17f2:	4413      	add	r3, r2
    17f4:	6858      	ldr	r0, [r3, #4]
    17f6:	9b09      	ldr	r3, [sp, #36]	; 0x24
    17f8:	011b      	lsls	r3, r3, #4
    17fa:	9a07      	ldr	r2, [sp, #28]
    17fc:	4413      	add	r3, r2
    17fe:	689b      	ldr	r3, [r3, #8]
    1800:	4602      	mov	r2, r0
    1802:	480c      	ldr	r0, [pc, #48]	; (1834 <_Z17print_memory_infov+0x84>)
    1804:	f009 fe9c 	bl	b540 <printf>
    for (int i = 0; i < cnt; i++) {
    1808:	9b09      	ldr	r3, [sp, #36]	; 0x24
    180a:	3301      	adds	r3, #1
    180c:	9309      	str	r3, [sp, #36]	; 0x24
    180e:	e7e4      	b.n	17da <_Z17print_memory_infov+0x2a>
    }
    free(stats);
    1810:	9807      	ldr	r0, [sp, #28]
    1812:	f009 fb15 	bl	ae40 <free>

    // Grab the heap statistics
    mbed_stats_heap_t heap_stats;
    mbed_stats_heap_get(&heap_stats);
    1816:	ab01      	add	r3, sp, #4
    1818:	4618      	mov	r0, r3
    181a:	f000 ffb9 	bl	2790 <mbed_stats_heap_get>
    printf("Heap size: %lu / %lu bytes\r\n", heap_stats.current_size, heap_stats.reserved_size);
    181e:	9b01      	ldr	r3, [sp, #4]
    1820:	9a04      	ldr	r2, [sp, #16]
    1822:	4619      	mov	r1, r3
    1824:	4804      	ldr	r0, [pc, #16]	; (1838 <_Z17print_memory_infov+0x88>)
    1826:	f009 fe8b 	bl	b540 <printf>
}
    182a:	bf00      	nop
    182c:	b00b      	add	sp, #44	; 0x2c
    182e:	f85d fb04 	ldr.w	pc, [sp], #4
    1832:	bf00      	nop
    1834:	00010a04 	.word	0x00010a04
    1838:	00010a2c 	.word	0x00010a2c

0000183c <main>:

int main() {
    183c:	b510      	push	{r4, lr}
    183e:	b08a      	sub	sp, #40	; 0x28
    print_memory_info();
    1840:	f7ff ffb6 	bl	17b0 <_Z17print_memory_infov>
    mbed_mem_trace_set_callback(mbed_mem_trace_default_callback);
    1844:	481d      	ldr	r0, [pc, #116]	; (18bc <main+0x80>)
    1846:	f001 fb99 	bl	2f7c <mbed_mem_trace_set_callback>

    while (true) {
        wait(2.0);
    184a:	f04f 4080 	mov.w	r0, #1073741824	; 0x40000000
    184e:	f002 fa6f 	bl	3d30 <wait>

        void *ptr1 = malloc(512);
    1852:	f44f 7000 	mov.w	r0, #512	; 0x200
    1856:	f009 faeb 	bl	ae30 <malloc>
    185a:	9009      	str	r0, [sp, #36]	; 0x24
        void *ptr2 = calloc(768, 1);
    185c:	2101      	movs	r1, #1
    185e:	f44f 7040 	mov.w	r0, #768	; 0x300
    1862:	f008 fd7d 	bl	a360 <calloc>
    1866:	9008      	str	r0, [sp, #32]
        void *ptr3 = (void*)new DigitalOut(LED1);
    1868:	2004      	movs	r0, #4
    186a:	f002 f99d 	bl	3ba8 <_Znwj>
    186e:	4603      	mov	r3, r0
    1870:	461c      	mov	r4, r3
    1872:	f241 0116 	movw	r1, #4118	; 0x1016
    1876:	4620      	mov	r0, r4
    1878:	f7ff ff88 	bl	178c <_ZN4mbed10DigitalOutC1E7PinName>
    187c:	9407      	str	r4, [sp, #28]
        void *ptr4 = malloc(256);
    187e:	f44f 7080 	mov.w	r0, #256	; 0x100
    1882:	f009 fad5 	bl	ae30 <malloc>
    1886:	9006      	str	r0, [sp, #24]

        ptr4 = realloc(ptr4, 512);
    1888:	f44f 7100 	mov.w	r1, #512	; 0x200
    188c:	9806      	ldr	r0, [sp, #24]
    188e:	f009 fe6b 	bl	b568 <realloc>
    1892:	9006      	str	r0, [sp, #24]

        // Grab the heap statistics
        mbed_stats_heap_t heap_stats;
        mbed_stats_heap_get(&heap_stats);
    1894:	466b      	mov	r3, sp
    1896:	4618      	mov	r0, r3
    1898:	f000 ff7a 	bl	2790 <mbed_stats_heap_get>
        printf("Heap size: %lu / %lu bytes\r\n", heap_stats.current_size, heap_stats.reserved_size);
    189c:	9b00      	ldr	r3, [sp, #0]
    189e:	9a03      	ldr	r2, [sp, #12]
    18a0:	4619      	mov	r1, r3
    18a2:	4807      	ldr	r0, [pc, #28]	; (18c0 <main+0x84>)
    18a4:	f009 fe4c 	bl	b540 <printf>

        // Forget to free a pointer
        free(ptr1);
    18a8:	9809      	ldr	r0, [sp, #36]	; 0x24
    18aa:	f009 fac9 	bl	ae40 <free>
        free(ptr3);
    18ae:	9807      	ldr	r0, [sp, #28]
    18b0:	f009 fac6 	bl	ae40 <free>
        free(ptr4);
    18b4:	9806      	ldr	r0, [sp, #24]
    18b6:	f009 fac3 	bl	ae40 <free>
    }
    18ba:	e7c6      	b.n	184a <main+0xe>
    18bc:	000030d1 	.word	0x000030d1
    18c0:	00010a2c 	.word	0x00010a2c

000018c4 <_Z41__static_initialization_and_destruction_0ii>:
}
    18c4:	b500      	push	{lr}
    18c6:	b083      	sub	sp, #12
    18c8:	9001      	str	r0, [sp, #4]
    18ca:	9100      	str	r1, [sp, #0]
    18cc:	9b01      	ldr	r3, [sp, #4]
    18ce:	2b01      	cmp	r3, #1
    18d0:	d109      	bne.n	18e6 <_Z41__static_initialization_and_destruction_0ii+0x22>
    18d2:	9b00      	ldr	r3, [sp, #0]
    18d4:	f64f 72ff 	movw	r2, #65535	; 0xffff
    18d8:	4293      	cmp	r3, r2
    18da:	d104      	bne.n	18e6 <_Z41__static_initialization_and_destruction_0ii+0x22>
DigitalOut led1(LED1);
    18dc:	f241 0116 	movw	r1, #4118	; 0x1016
    18e0:	4803      	ldr	r0, [pc, #12]	; (18f0 <_Z41__static_initialization_and_destruction_0ii+0x2c>)
    18e2:	f7ff ff53 	bl	178c <_ZN4mbed10DigitalOutC1E7PinName>
}
    18e6:	bf00      	nop
    18e8:	b003      	add	sp, #12
    18ea:	f85d fb04 	ldr.w	pc, [sp], #4
    18ee:	bf00      	nop
    18f0:	20000b9c 	.word	0x20000b9c

000018f4 <_GLOBAL__sub_I_led1>:
    18f4:	b508      	push	{r3, lr}
    18f6:	f64f 71ff 	movw	r1, #65535	; 0xffff
    18fa:	2001      	movs	r0, #1
    18fc:	f7ff ffe2 	bl	18c4 <_Z41__static_initialization_and_destruction_0ii>
    1900:	bd08      	pop	{r3, pc}

00001902 <_ZnwjPv>:
  __attribute__((__externally_visible__));
#endif

// Default placement versions of operator new.
inline void* operator new(std::size_t, void* __p) _GLIBCXX_USE_NOEXCEPT
{ return __p; }
    1902:	b082      	sub	sp, #8
    1904:	9001      	str	r0, [sp, #4]
    1906:	9100      	str	r1, [sp, #0]
    1908:	9b00      	ldr	r3, [sp, #0]
    190a:	4618      	mov	r0, r3
    190c:	b002      	add	sp, #8
    190e:	4770      	bx	lr

00001910 <_ZL14singleton_lockv>:
 * This function is typically used to provide
 * exclusive access when initializing a
 * global object.
 */
inline static void singleton_lock(void)
{
    1910:	b508      	push	{r3, lr}
#ifdef MBED_CONF_RTOS_PRESENT
    osMutexAcquire(singleton_mutex_id, osWaitForever);
    1912:	4b04      	ldr	r3, [pc, #16]	; (1924 <_ZL14singleton_lockv+0x14>)
    1914:	681b      	ldr	r3, [r3, #0]
    1916:	f04f 31ff 	mov.w	r1, #4294967295	; 0xffffffff
    191a:	4618      	mov	r0, r3
    191c:	f004 fe38 	bl	6590 <osMutexAcquire>
#endif
}
    1920:	bf00      	nop
    1922:	bd08      	pop	{r3, pc}
    1924:	20001ed0 	.word	0x20001ed0

00001928 <_ZL16singleton_unlockv>:
 * This function is typically used to provide
 * exclusive access when initializing a
 * global object.
 */
inline static void singleton_unlock(void)
{
    1928:	b508      	push	{r3, lr}
#ifdef MBED_CONF_RTOS_PRESENT
    osMutexRelease(singleton_mutex_id);
    192a:	4b03      	ldr	r3, [pc, #12]	; (1938 <_ZL16singleton_unlockv+0x10>)
    192c:	681b      	ldr	r3, [r3, #0]
    192e:	4618      	mov	r0, r3
    1930:	f004 fe5c 	bl	65ec <osMutexRelease>
#endif
}
    1934:	bf00      	nop
    1936:	bd08      	pop	{r3, pc}
    1938:	20001ed0 	.word	0x20001ed0

0000193c <_ZN12SingletonPtrIN4rtos5MutexEEptEv>:
    /** Get a pointer to the underlying singleton
     *
     * @returns
     *   A pointer to the singleton
     */
    T *operator->()
    193c:	b500      	push	{lr}
    193e:	b083      	sub	sp, #12
    1940:	9001      	str	r0, [sp, #4]
    {
        return get();
    1942:	9801      	ldr	r0, [sp, #4]
    1944:	f000 f806 	bl	1954 <_ZN12SingletonPtrIN4rtos5MutexEE3getEv>
    1948:	4603      	mov	r3, r0
    }
    194a:	4618      	mov	r0, r3
    194c:	b003      	add	sp, #12
    194e:	f85d fb04 	ldr.w	pc, [sp], #4
	...

00001954 <_ZN12SingletonPtrIN4rtos5MutexEE3getEv>:
    T *get()
    1954:	b510      	push	{r4, lr}
    1956:	b082      	sub	sp, #8
    1958:	9001      	str	r0, [sp, #4]
        if (NULL == _ptr) {
    195a:	9b01      	ldr	r3, [sp, #4]
    195c:	681b      	ldr	r3, [r3, #0]
    195e:	2b00      	cmp	r3, #0
    1960:	d118      	bne.n	1994 <_ZN12SingletonPtrIN4rtos5MutexEE3getEv+0x40>
            singleton_lock();
    1962:	f7ff ffd5 	bl	1910 <_ZL14singleton_lockv>
            if (NULL == _ptr) {
    1966:	9b01      	ldr	r3, [sp, #4]
    1968:	681b      	ldr	r3, [r3, #0]
    196a:	2b00      	cmp	r3, #0
    196c:	d110      	bne.n	1990 <_ZN12SingletonPtrIN4rtos5MutexEE3getEv+0x3c>
                _ptr = new (_data) T();
    196e:	9b01      	ldr	r3, [sp, #4]
    1970:	3304      	adds	r3, #4
    1972:	4619      	mov	r1, r3
    1974:	2024      	movs	r0, #36	; 0x24
    1976:	f7ff ffc4 	bl	1902 <_ZnwjPv>
    197a:	4604      	mov	r4, r0
    197c:	2c00      	cmp	r4, #0
    197e:	d004      	beq.n	198a <_ZN12SingletonPtrIN4rtos5MutexEE3getEv+0x36>
    1980:	4620      	mov	r0, r4
    1982:	f002 fa37 	bl	3df4 <_ZN4rtos5MutexC1Ev>
    1986:	4622      	mov	r2, r4
    1988:	e000      	b.n	198c <_ZN12SingletonPtrIN4rtos5MutexEE3getEv+0x38>
    198a:	4622      	mov	r2, r4
    198c:	9b01      	ldr	r3, [sp, #4]
    198e:	601a      	str	r2, [r3, #0]
            singleton_unlock();
    1990:	f7ff ffca 	bl	1928 <_ZL16singleton_unlockv>
        MBED_ASSERT(_ptr == (T *)&_data);
    1994:	9b01      	ldr	r3, [sp, #4]
    1996:	681a      	ldr	r2, [r3, #0]
    1998:	9b01      	ldr	r3, [sp, #4]
    199a:	3304      	adds	r3, #4
    199c:	429a      	cmp	r2, r3
    199e:	d004      	beq.n	19aa <_ZN12SingletonPtrIN4rtos5MutexEE3getEv+0x56>
    19a0:	225e      	movs	r2, #94	; 0x5e
    19a2:	4904      	ldr	r1, [pc, #16]	; (19b4 <_ZN12SingletonPtrIN4rtos5MutexEE3getEv+0x60>)
    19a4:	4804      	ldr	r0, [pc, #16]	; (19b8 <_ZN12SingletonPtrIN4rtos5MutexEE3getEv+0x64>)
    19a6:	f001 f835 	bl	2a14 <mbed_assert_internal>
        return _ptr;
    19aa:	9b01      	ldr	r3, [sp, #4]
    19ac:	681b      	ldr	r3, [r3, #0]
    }
    19ae:	4618      	mov	r0, r3
    19b0:	b002      	add	sp, #8
    19b2:	bd10      	pop	{r4, pc}
    19b4:	00010a4c 	.word	0x00010a4c
    19b8:	00010a70 	.word	0x00010a70

000019bc <_ZN4mbed10FileHandle5lseekEli>:
     *    -1 on failure or unsupported
     *  @deprecated Replaced by `off_t FileHandle::seek(off_t offset, int whence = SEEK_SET)'
     *
     */
    MBED_DEPRECATED_SINCE("mbed-os-5.4", "Replaced by FileHandle::seek")
    virtual off_t lseek(off_t offset, int whence)
    19bc:	b500      	push	{lr}
    19be:	b085      	sub	sp, #20
    19c0:	9003      	str	r0, [sp, #12]
    19c2:	9102      	str	r1, [sp, #8]
    19c4:	9201      	str	r2, [sp, #4]
    {
        return seek(offset, whence);
    19c6:	9b03      	ldr	r3, [sp, #12]
    19c8:	681b      	ldr	r3, [r3, #0]
    19ca:	3310      	adds	r3, #16
    19cc:	681b      	ldr	r3, [r3, #0]
    19ce:	9a01      	ldr	r2, [sp, #4]
    19d0:	9902      	ldr	r1, [sp, #8]
    19d2:	9803      	ldr	r0, [sp, #12]
    19d4:	4798      	blx	r3
    19d6:	4603      	mov	r3, r0
    }
    19d8:	4618      	mov	r0, r3
    19da:	b005      	add	sp, #20
    19dc:	f85d fb04 	ldr.w	pc, [sp], #4

000019e0 <_ZN4mbed10FileHandle5fsyncEv>:
     *    0 on success or un-needed,
     *   -1 on error
     *  @deprecated Replaced by `int FileHandle::sync()'
     */
    MBED_DEPRECATED_SINCE("mbed-os-5.4", "Replaced by FileHandle::sync")
    virtual int fsync()
    19e0:	b500      	push	{lr}
    19e2:	b083      	sub	sp, #12
    19e4:	9001      	str	r0, [sp, #4]
    {
        return sync();
    19e6:	9b01      	ldr	r3, [sp, #4]
    19e8:	681b      	ldr	r3, [r3, #0]
    19ea:	3318      	adds	r3, #24
    19ec:	681b      	ldr	r3, [r3, #0]
    19ee:	9801      	ldr	r0, [sp, #4]
    19f0:	4798      	blx	r3
    19f2:	4603      	mov	r3, r0
    }
    19f4:	4618      	mov	r0, r3
    19f6:	b003      	add	sp, #12
    19f8:	f85d fb04 	ldr.w	pc, [sp], #4

000019fc <_ZN4mbed10FileHandle4flenEv>:
     *  @returns
     *   Length of the file
     *  @deprecated Replaced by `off_t FileHandle::size()'
     */
    MBED_DEPRECATED_SINCE("mbed-os-5.4", "Replaced by FileHandle::size")
    virtual off_t flen()
    19fc:	b500      	push	{lr}
    19fe:	b083      	sub	sp, #12
    1a00:	9001      	str	r0, [sp, #4]
    {
        return size();
    1a02:	9b01      	ldr	r3, [sp, #4]
    1a04:	681b      	ldr	r3, [r3, #0]
    1a06:	3328      	adds	r3, #40	; 0x28
    1a08:	681b      	ldr	r3, [r3, #0]
    1a0a:	9801      	ldr	r0, [sp, #4]
    1a0c:	4798      	blx	r3
    1a0e:	4603      	mov	r3, r0
    }
    1a10:	4618      	mov	r0, r3
    1a12:	b003      	add	sp, #12
    1a14:	f85d fb04 	ldr.w	pc, [sp], #4

00001a18 <_ZN4mbed10FileHandle12set_blockingEb>:
     *  @param blocking     true for blocking mode, false for non-blocking mode.
     *
     *  @return             0 on success
     *  @return             Negative error code on failure
     */
    virtual int set_blocking(bool blocking)
    1a18:	b082      	sub	sp, #8
    1a1a:	9001      	str	r0, [sp, #4]
    1a1c:	460b      	mov	r3, r1
    1a1e:	f88d 3003 	strb.w	r3, [sp, #3]
    {
        return blocking ? 0 : -ENOTTY;
    1a22:	f89d 3003 	ldrb.w	r3, [sp, #3]
    1a26:	2b00      	cmp	r3, #0
    1a28:	d001      	beq.n	1a2e <_ZN4mbed10FileHandle12set_blockingEb+0x16>
    1a2a:	2300      	movs	r3, #0
    1a2c:	e001      	b.n	1a32 <_ZN4mbed10FileHandle12set_blockingEb+0x1a>
    1a2e:	f06f 0318 	mvn.w	r3, #24
    }
    1a32:	4618      	mov	r0, r3
    1a34:	b002      	add	sp, #8
    1a36:	4770      	bx	lr

00001a38 <_ZNK4mbed10FileHandle11is_blockingEv>:

    /** Check current blocking or non-blocking mode for file operations.
     *
     *  @return             true for blocking mode, false for non-blocking mode.
     */
    virtual bool is_blocking() const
    1a38:	b082      	sub	sp, #8
    1a3a:	9001      	str	r0, [sp, #4]
    {
        return true;
    1a3c:	2301      	movs	r3, #1
    }
    1a3e:	4618      	mov	r0, r3
    1a40:	b002      	add	sp, #8
    1a42:	4770      	bx	lr

00001a44 <_ZNK4mbed10FileHandle4pollEs>:
     *
     * @param events        bitmask of poll events we're interested in - POLLIN/POLLOUT etc.
     *
     * @returns             bitmask of poll events that have occurred.
     */
    virtual short poll(short events) const
    1a44:	b082      	sub	sp, #8
    1a46:	9001      	str	r0, [sp, #4]
    1a48:	460b      	mov	r3, r1
    1a4a:	f8ad 3002 	strh.w	r3, [sp, #2]
    {
        // Possible default for real files
        return POLLIN | POLLOUT;
    1a4e:	2311      	movs	r3, #17
    }
    1a50:	4618      	mov	r0, r3
    1a52:	b002      	add	sp, #8
    1a54:	4770      	bx	lr

00001a56 <_ZN4mbed10FileHandle5sigioENS_8CallbackIFvvEEE>:
     *  is called is not guaranteed and susceptible to change. It should be used
     *  as a cue to make read/write/poll calls to find the current state.
     *
     *  @param func     Function to call on state change
     */
    virtual void sigio(Callback<void()> func)
    1a56:	b082      	sub	sp, #8
    1a58:	9001      	str	r0, [sp, #4]
    1a5a:	9100      	str	r1, [sp, #0]
    {
        //Default for real files. Do nothing for real files.
    }
    1a5c:	bf00      	nop
    1a5e:	b002      	add	sp, #8
    1a60:	4770      	bx	lr
	...

00001a64 <_ZN4mbed10FileHandleD1Ev>:
    virtual ~FileHandle() {}
    1a64:	b500      	push	{lr}
    1a66:	b083      	sub	sp, #12
    1a68:	9001      	str	r0, [sp, #4]
    1a6a:	4a05      	ldr	r2, [pc, #20]	; (1a80 <_ZN4mbed10FileHandleD1Ev+0x1c>)
    1a6c:	9b01      	ldr	r3, [sp, #4]
    1a6e:	601a      	str	r2, [r3, #0]
    1a70:	9801      	ldr	r0, [sp, #4]
    1a72:	f000 f845 	bl	1b00 <_ZN4mbed11NonCopyableINS_10FileHandleEED1Ev>
    1a76:	9b01      	ldr	r3, [sp, #4]
    1a78:	4618      	mov	r0, r3
    1a7a:	b003      	add	sp, #12
    1a7c:	f85d fb04 	ldr.w	pc, [sp], #4
    1a80:	00012534 	.word	0x00012534

00001a84 <_ZN4mbed10FileHandleD0Ev>:
    1a84:	b500      	push	{lr}
    1a86:	b083      	sub	sp, #12
    1a88:	9001      	str	r0, [sp, #4]
    1a8a:	9801      	ldr	r0, [sp, #4]
    1a8c:	f7ff ffea 	bl	1a64 <_ZN4mbed10FileHandleD1Ev>
    1a90:	9801      	ldr	r0, [sp, #4]
    1a92:	f002 f8ab 	bl	3bec <_ZdlPv>
    1a96:	9b01      	ldr	r3, [sp, #4]
    1a98:	4618      	mov	r0, r3
    1a9a:	b003      	add	sp, #12
    1a9c:	f85d fb04 	ldr.w	pc, [sp], #4

00001aa0 <_ZN4mbed10FileHandle4tellEv>:
    virtual off_t tell()
    1aa0:	b500      	push	{lr}
    1aa2:	b083      	sub	sp, #12
    1aa4:	9001      	str	r0, [sp, #4]
        return seek(0, SEEK_CUR);
    1aa6:	9b01      	ldr	r3, [sp, #4]
    1aa8:	681b      	ldr	r3, [r3, #0]
    1aaa:	3310      	adds	r3, #16
    1aac:	681b      	ldr	r3, [r3, #0]
    1aae:	2201      	movs	r2, #1
    1ab0:	2100      	movs	r1, #0
    1ab2:	9801      	ldr	r0, [sp, #4]
    1ab4:	4798      	blx	r3
    1ab6:	4603      	mov	r3, r0
    }
    1ab8:	4618      	mov	r0, r3
    1aba:	b003      	add	sp, #12
    1abc:	f85d fb04 	ldr.w	pc, [sp], #4

00001ac0 <_ZN4mbed10FileHandle6rewindEv>:
    virtual void rewind()
    1ac0:	b500      	push	{lr}
    1ac2:	b083      	sub	sp, #12
    1ac4:	9001      	str	r0, [sp, #4]
        seek(0, SEEK_SET);
    1ac6:	9b01      	ldr	r3, [sp, #4]
    1ac8:	681b      	ldr	r3, [r3, #0]
    1aca:	3310      	adds	r3, #16
    1acc:	681b      	ldr	r3, [r3, #0]
    1ace:	2200      	movs	r2, #0
    1ad0:	2100      	movs	r1, #0
    1ad2:	9801      	ldr	r0, [sp, #4]
    1ad4:	4798      	blx	r3
    }
    1ad6:	bf00      	nop
    1ad8:	b003      	add	sp, #12
    1ada:	f85d fb04 	ldr.w	pc, [sp], #4
	...

00001ae0 <_ZN4mbed10FileHandleC1Ev>:
class FileHandle : private NonCopyable<FileHandle> {
    1ae0:	b500      	push	{lr}
    1ae2:	b083      	sub	sp, #12
    1ae4:	9001      	str	r0, [sp, #4]
    1ae6:	9801      	ldr	r0, [sp, #4]
    1ae8:	f000 f810 	bl	1b0c <_ZN4mbed11NonCopyableINS_10FileHandleEEC1Ev>
    1aec:	4a03      	ldr	r2, [pc, #12]	; (1afc <_ZN4mbed10FileHandleC1Ev+0x1c>)
    1aee:	9b01      	ldr	r3, [sp, #4]
    1af0:	601a      	str	r2, [r3, #0]
    1af2:	9b01      	ldr	r3, [sp, #4]
    1af4:	4618      	mov	r0, r3
    1af6:	b003      	add	sp, #12
    1af8:	f85d fb04 	ldr.w	pc, [sp], #4
    1afc:	00012534 	.word	0x00012534

00001b00 <_ZN4mbed11NonCopyableINS_10FileHandleEED1Ev>:
     */
    NonCopyable() { }
    /**
     * Disallow destruction of NonCopyable objects from outside of its hierarchy.
     */
    ~NonCopyable() { }
    1b00:	b082      	sub	sp, #8
    1b02:	9001      	str	r0, [sp, #4]
    1b04:	9b01      	ldr	r3, [sp, #4]
    1b06:	4618      	mov	r0, r3
    1b08:	b002      	add	sp, #8
    1b0a:	4770      	bx	lr

00001b0c <_ZN4mbed11NonCopyableINS_10FileHandleEEC1Ev>:
    NonCopyable() { }
    1b0c:	b082      	sub	sp, #8
    1b0e:	9001      	str	r0, [sp, #4]
    1b10:	9b01      	ldr	r3, [sp, #4]
    1b12:	4618      	mov	r0, r3
    1b14:	b002      	add	sp, #8
    1b16:	4770      	bx	lr

00001b18 <_ZN13StorageVolumeC1Ev>:

class StorageVolume {
public:
    MBED_DEPRECATED_SINCE("mbed-os-5.5", "StorageVolume is deprecated. "
                          "Use MBRBlockDevice for volumes instead")
    StorageVolume() : allocated(false) { /* empty */ }
    1b18:	b082      	sub	sp, #8
    1b1a:	9001      	str	r0, [sp, #4]
    1b1c:	9b01      	ldr	r3, [sp, #4]
    1b1e:	2200      	movs	r2, #0
    1b20:	701a      	strb	r2, [r3, #0]
    1b22:	9b01      	ldr	r3, [sp, #4]
    1b24:	4618      	mov	r0, r3
    1b26:	b002      	add	sp, #8
    1b28:	4770      	bx	lr

00001b2a <_ZN20StorageVolumeManagerC1Ev>:

class StorageVolumeManager {
public:
    MBED_DEPRECATED_SINCE("mbed-os-5.5", "StorageVolumeManager is deprecated. "
                          "Use MBRBlockDevice to manage volumes instead")
    StorageVolumeManager()  { /* empty */ }
    1b2a:	b530      	push	{r4, r5, lr}
    1b2c:	b083      	sub	sp, #12
    1b2e:	9001      	str	r0, [sp, #4]
    1b30:	9b01      	ldr	r3, [sp, #4]
    1b32:	3338      	adds	r3, #56	; 0x38
    1b34:	2403      	movs	r4, #3
    1b36:	461d      	mov	r5, r3
    1b38:	2c00      	cmp	r4, #0
    1b3a:	db05      	blt.n	1b48 <_ZN20StorageVolumeManagerC1Ev+0x1e>
    1b3c:	4628      	mov	r0, r5
    1b3e:	f7ff ffeb 	bl	1b18 <_ZN13StorageVolumeC1Ev>
    1b42:	3520      	adds	r5, #32
    1b44:	3c01      	subs	r4, #1
    1b46:	e7f7      	b.n	1b38 <_ZN20StorageVolumeManagerC1Ev+0xe>
    1b48:	9b01      	ldr	r3, [sp, #4]
    1b4a:	4618      	mov	r0, r3
    1b4c:	b003      	add	sp, #12
    1b4e:	bd30      	pop	{r4, r5, pc}

00001b50 <_ZN20StorageVolumeManagerD1Ev>:
    ~StorageVolumeManager() { /* empty */ }
    1b50:	b082      	sub	sp, #8
    1b52:	9001      	str	r0, [sp, #4]
    1b54:	9b01      	ldr	r3, [sp, #4]
    1b56:	4618      	mov	r0, r3
    1b58:	b002      	add	sp, #8
    1b5a:	4770      	bx	lr

00001b5c <_Z41__static_initialization_and_destruction_0ii>:
    if(ret < ARM_DRIVER_OK) {
        CFSTORE_ERRLOG("%s:debug: storage_mtd->initialize() failed for storage_mtd=%p (ret=%d)", __func__, storage_mtd, (int) ret);
        return ret;
    }
    return ret;
}
    1b5c:	b500      	push	{lr}
    1b5e:	b083      	sub	sp, #12
    1b60:	9001      	str	r0, [sp, #4]
    1b62:	9100      	str	r1, [sp, #0]
    1b64:	9b01      	ldr	r3, [sp, #4]
    1b66:	2b01      	cmp	r3, #1
    1b68:	d10c      	bne.n	1b84 <_Z41__static_initialization_and_destruction_0ii+0x28>
    1b6a:	9b00      	ldr	r3, [sp, #0]
    1b6c:	f64f 72ff 	movw	r2, #65535	; 0xffff
    1b70:	4293      	cmp	r3, r2
    1b72:	d107      	bne.n	1b84 <_Z41__static_initialization_and_destruction_0ii+0x28>
StorageVolumeManager volumeManager;
    1b74:	4805      	ldr	r0, [pc, #20]	; (1b8c <_Z41__static_initialization_and_destruction_0ii+0x30>)
    1b76:	f7ff ffd8 	bl	1b2a <_ZN20StorageVolumeManagerC1Ev>
    1b7a:	4a05      	ldr	r2, [pc, #20]	; (1b90 <_Z41__static_initialization_and_destruction_0ii+0x34>)
    1b7c:	4905      	ldr	r1, [pc, #20]	; (1b94 <_Z41__static_initialization_and_destruction_0ii+0x38>)
    1b7e:	4803      	ldr	r0, [pc, #12]	; (1b8c <_Z41__static_initialization_and_destruction_0ii+0x30>)
    1b80:	f001 ff88 	bl	3a94 <__aeabi_atexit>
}
    1b84:	bf00      	nop
    1b86:	b003      	add	sp, #12
    1b88:	f85d fb04 	ldr.w	pc, [sp], #4
    1b8c:	20000ba0 	.word	0x20000ba0
    1b90:	20000000 	.word	0x20000000
    1b94:	00001b51 	.word	0x00001b51

00001b98 <_GLOBAL__sub_I_volumeManager>:
    1b98:	b508      	push	{r3, lr}
    1b9a:	f64f 71ff 	movw	r1, #65535	; 0xffff
    1b9e:	2001      	movs	r0, #1
    1ba0:	f7ff ffdc 	bl	1b5c <_Z41__static_initialization_and_destruction_0ii>
    1ba4:	bd08      	pop	{r3, pc}

00001ba6 <are_interrupts_enabled>:

static volatile bool critical_interrupts_enabled = false;
static volatile bool state_saved = false;

static bool are_interrupts_enabled(void)
{
    1ba6:	b082      	sub	sp, #8
 */
__STATIC_FORCEINLINE uint32_t __get_PRIMASK(void)
{
  uint32_t result;

  __ASM volatile ("MRS %0, primask" : "=r" (result) :: "memory");
    1ba8:	f3ef 8310 	mrs	r3, PRIMASK
    1bac:	9301      	str	r3, [sp, #4]
  return(result);
    1bae:	9b01      	ldr	r3, [sp, #4]
#if defined(__CORTEX_A9)
    return ((__get_CPSR() & 0x80) == 0);
#else
    return ((__get_PRIMASK() & 0x1) == 0);
    1bb0:	f003 0301 	and.w	r3, r3, #1
    1bb4:	2b00      	cmp	r3, #0
    1bb6:	bf0c      	ite	eq
    1bb8:	2301      	moveq	r3, #1
    1bba:	2300      	movne	r3, #0
    1bbc:	b2db      	uxtb	r3, r3
#endif
}
    1bbe:	4618      	mov	r0, r3
    1bc0:	b002      	add	sp, #8
    1bc2:	4770      	bx	lr

00001bc4 <hal_critical_section_enter>:


MBED_WEAK void hal_critical_section_enter(void)
{
    1bc4:	b500      	push	{lr}
    1bc6:	b083      	sub	sp, #12
    const bool interrupt_state = are_interrupts_enabled();
    1bc8:	f7ff ffed 	bl	1ba6 <are_interrupts_enabled>
    1bcc:	4603      	mov	r3, r0
    1bce:	f88d 3007 	strb.w	r3, [sp, #7]
  __ASM volatile ("cpsid i" : : : "memory");
    1bd2:	b672      	cpsid	i

    __disable_irq();

    if (state_saved == true) {
    1bd4:	4b08      	ldr	r3, [pc, #32]	; (1bf8 <hal_critical_section_enter+0x34>)
    1bd6:	781b      	ldrb	r3, [r3, #0]
    1bd8:	b2db      	uxtb	r3, r3
    1bda:	2b00      	cmp	r3, #0
    1bdc:	d107      	bne.n	1bee <hal_critical_section_enter+0x2a>
        return;
    }

    critical_interrupts_enabled = interrupt_state;
    1bde:	4a07      	ldr	r2, [pc, #28]	; (1bfc <hal_critical_section_enter+0x38>)
    1be0:	f89d 3007 	ldrb.w	r3, [sp, #7]
    1be4:	7013      	strb	r3, [r2, #0]
    state_saved = true;
    1be6:	4b04      	ldr	r3, [pc, #16]	; (1bf8 <hal_critical_section_enter+0x34>)
    1be8:	2201      	movs	r2, #1
    1bea:	701a      	strb	r2, [r3, #0]
    1bec:	e000      	b.n	1bf0 <hal_critical_section_enter+0x2c>
        return;
    1bee:	bf00      	nop
}
    1bf0:	b003      	add	sp, #12
    1bf2:	f85d fb04 	ldr.w	pc, [sp], #4
    1bf6:	bf00      	nop
    1bf8:	20000c59 	.word	0x20000c59
    1bfc:	20000c58 	.word	0x20000c58

00001c00 <hal_critical_section_exit>:

MBED_WEAK void hal_critical_section_exit(void)
{
    1c00:	b508      	push	{r3, lr}
#ifndef FEATURE_UVISOR
    // Interrupts must be disabled on invoking an exit from a critical section
    MBED_ASSERT(!are_interrupts_enabled());
    1c02:	f7ff ffd0 	bl	1ba6 <are_interrupts_enabled>
    1c06:	4603      	mov	r3, r0
    1c08:	2b00      	cmp	r3, #0
    1c0a:	d004      	beq.n	1c16 <hal_critical_section_exit+0x16>
    1c0c:	2236      	movs	r2, #54	; 0x36
    1c0e:	4907      	ldr	r1, [pc, #28]	; (1c2c <hal_critical_section_exit+0x2c>)
    1c10:	4807      	ldr	r0, [pc, #28]	; (1c30 <hal_critical_section_exit+0x30>)
    1c12:	f000 feff 	bl	2a14 <mbed_assert_internal>
#endif
    state_saved = false;
    1c16:	4b07      	ldr	r3, [pc, #28]	; (1c34 <hal_critical_section_exit+0x34>)
    1c18:	2200      	movs	r2, #0
    1c1a:	701a      	strb	r2, [r3, #0]

    // Restore the IRQs to their state prior to entering the critical section
    if (critical_interrupts_enabled == true) {
    1c1c:	4b06      	ldr	r3, [pc, #24]	; (1c38 <hal_critical_section_exit+0x38>)
    1c1e:	781b      	ldrb	r3, [r3, #0]
    1c20:	b2db      	uxtb	r3, r3
    1c22:	2b00      	cmp	r3, #0
    1c24:	d000      	beq.n	1c28 <hal_critical_section_exit+0x28>
  __ASM volatile ("cpsie i" : : : "memory");
    1c26:	b662      	cpsie	i
        __enable_irq();
    }
}
    1c28:	bf00      	nop
    1c2a:	bd08      	pop	{r3, pc}
    1c2c:	00010a84 	.word	0x00010a84
    1c30:	00010ab0 	.word	0x00010ab0
    1c34:	20000c59 	.word	0x20000c59
    1c38:	20000c58 	.word	0x20000c58

00001c3c <_gpio_init_in>:
 * limitations under the License.
 */
#include "hal/gpio_api.h"

static inline void _gpio_init_in(gpio_t *gpio, PinName pin, PinMode mode)
{
    1c3c:	b500      	push	{lr}
    1c3e:	b085      	sub	sp, #20
    1c40:	9003      	str	r0, [sp, #12]
    1c42:	9102      	str	r1, [sp, #8]
    1c44:	4613      	mov	r3, r2
    1c46:	f88d 3007 	strb.w	r3, [sp, #7]
    gpio_init(gpio, pin);
    1c4a:	9902      	ldr	r1, [sp, #8]
    1c4c:	9803      	ldr	r0, [sp, #12]
    1c4e:	f008 fa05 	bl	a05c <gpio_init>
    if (pin != NC) {
    1c52:	9b02      	ldr	r3, [sp, #8]
    1c54:	f1b3 3fff 	cmp.w	r3, #4294967295	; 0xffffffff
    1c58:	d009      	beq.n	1c6e <_gpio_init_in+0x32>
        gpio_dir(gpio, PIN_INPUT);
    1c5a:	2100      	movs	r1, #0
    1c5c:	9803      	ldr	r0, [sp, #12]
    1c5e:	f008 fa23 	bl	a0a8 <gpio_dir>
        gpio_mode(gpio, mode);
    1c62:	f89d 3007 	ldrb.w	r3, [sp, #7]
    1c66:	4619      	mov	r1, r3
    1c68:	9803      	ldr	r0, [sp, #12]
    1c6a:	f008 fa0b 	bl	a084 <gpio_mode>
    }
}
    1c6e:	bf00      	nop
    1c70:	b005      	add	sp, #20
    1c72:	f85d fb04 	ldr.w	pc, [sp], #4

00001c76 <_gpio_init_out>:

static inline void _gpio_init_out(gpio_t *gpio, PinName pin, PinMode mode, int value)
{
    1c76:	b500      	push	{lr}
    1c78:	b085      	sub	sp, #20
    1c7a:	9003      	str	r0, [sp, #12]
    1c7c:	9102      	str	r1, [sp, #8]
    1c7e:	9300      	str	r3, [sp, #0]
    1c80:	4613      	mov	r3, r2
    1c82:	f88d 3007 	strb.w	r3, [sp, #7]
    gpio_init(gpio, pin);
    1c86:	9902      	ldr	r1, [sp, #8]
    1c88:	9803      	ldr	r0, [sp, #12]
    1c8a:	f008 f9e7 	bl	a05c <gpio_init>
    if (pin != NC) {
    1c8e:	9b02      	ldr	r3, [sp, #8]
    1c90:	f1b3 3fff 	cmp.w	r3, #4294967295	; 0xffffffff
    1c94:	d00d      	beq.n	1cb2 <_gpio_init_out+0x3c>
        gpio_write(gpio, value);
    1c96:	9900      	ldr	r1, [sp, #0]
    1c98:	9803      	ldr	r0, [sp, #12]
    1c9a:	f008 fa49 	bl	a130 <gpio_write>
        gpio_dir(gpio, PIN_OUTPUT);
    1c9e:	2101      	movs	r1, #1
    1ca0:	9803      	ldr	r0, [sp, #12]
    1ca2:	f008 fa01 	bl	a0a8 <gpio_dir>
        gpio_mode(gpio, mode);
    1ca6:	f89d 3007 	ldrb.w	r3, [sp, #7]
    1caa:	4619      	mov	r1, r3
    1cac:	9803      	ldr	r0, [sp, #12]
    1cae:	f008 f9e9 	bl	a084 <gpio_mode>
    }
}
    1cb2:	bf00      	nop
    1cb4:	b005      	add	sp, #20
    1cb6:	f85d fb04 	ldr.w	pc, [sp], #4

00001cba <gpio_init_in>:

void gpio_init_in(gpio_t *gpio, PinName pin)
{
    1cba:	b500      	push	{lr}
    1cbc:	b083      	sub	sp, #12
    1cbe:	9001      	str	r0, [sp, #4]
    1cc0:	9100      	str	r1, [sp, #0]
    gpio_init_in_ex(gpio, pin, PullDefault);
    1cc2:	2202      	movs	r2, #2
    1cc4:	9900      	ldr	r1, [sp, #0]
    1cc6:	9801      	ldr	r0, [sp, #4]
    1cc8:	f000 f804 	bl	1cd4 <gpio_init_in_ex>
}
    1ccc:	bf00      	nop
    1cce:	b003      	add	sp, #12
    1cd0:	f85d fb04 	ldr.w	pc, [sp], #4

00001cd4 <gpio_init_in_ex>:

void gpio_init_in_ex(gpio_t *gpio, PinName pin, PinMode mode)
{
    1cd4:	b500      	push	{lr}
    1cd6:	b085      	sub	sp, #20
    1cd8:	9003      	str	r0, [sp, #12]
    1cda:	9102      	str	r1, [sp, #8]
    1cdc:	4613      	mov	r3, r2
    1cde:	f88d 3007 	strb.w	r3, [sp, #7]
    _gpio_init_in(gpio, pin, mode);
    1ce2:	f89d 3007 	ldrb.w	r3, [sp, #7]
    1ce6:	461a      	mov	r2, r3
    1ce8:	9902      	ldr	r1, [sp, #8]
    1cea:	9803      	ldr	r0, [sp, #12]
    1cec:	f7ff ffa6 	bl	1c3c <_gpio_init_in>
}
    1cf0:	bf00      	nop
    1cf2:	b005      	add	sp, #20
    1cf4:	f85d fb04 	ldr.w	pc, [sp], #4

00001cf8 <gpio_init_out>:

void gpio_init_out(gpio_t *gpio, PinName pin)
{
    1cf8:	b500      	push	{lr}
    1cfa:	b083      	sub	sp, #12
    1cfc:	9001      	str	r0, [sp, #4]
    1cfe:	9100      	str	r1, [sp, #0]
    gpio_init_out_ex(gpio, pin, 0);
    1d00:	2200      	movs	r2, #0
    1d02:	9900      	ldr	r1, [sp, #0]
    1d04:	9801      	ldr	r0, [sp, #4]
    1d06:	f000 f804 	bl	1d12 <gpio_init_out_ex>
}
    1d0a:	bf00      	nop
    1d0c:	b003      	add	sp, #12
    1d0e:	f85d fb04 	ldr.w	pc, [sp], #4

00001d12 <gpio_init_out_ex>:

void gpio_init_out_ex(gpio_t *gpio, PinName pin, int value)
{
    1d12:	b500      	push	{lr}
    1d14:	b085      	sub	sp, #20
    1d16:	9003      	str	r0, [sp, #12]
    1d18:	9102      	str	r1, [sp, #8]
    1d1a:	9201      	str	r2, [sp, #4]
    _gpio_init_out(gpio, pin, PullNone, value);
    1d1c:	9b01      	ldr	r3, [sp, #4]
    1d1e:	2200      	movs	r2, #0
    1d20:	9902      	ldr	r1, [sp, #8]
    1d22:	9803      	ldr	r0, [sp, #12]
    1d24:	f7ff ffa7 	bl	1c76 <_gpio_init_out>
}
    1d28:	bf00      	nop
    1d2a:	b005      	add	sp, #20
    1d2c:	f85d fb04 	ldr.w	pc, [sp], #4

00001d30 <pinmap_pinout>:
 */
#include "hal/pinmap.h"
#include "platform/mbed_error.h"

void pinmap_pinout(PinName pin, const PinMap *map)
{
    1d30:	b500      	push	{lr}
    1d32:	b085      	sub	sp, #20
    1d34:	9003      	str	r0, [sp, #12]
    1d36:	9102      	str	r1, [sp, #8]
    if (pin == NC) {
    1d38:	9b03      	ldr	r3, [sp, #12]
    1d3a:	f1b3 3fff 	cmp.w	r3, #4294967295	; 0xffffffff
    1d3e:	d021      	beq.n	1d84 <pinmap_pinout+0x54>
        return;
    }

    while (map->pin != NC) {
    1d40:	e012      	b.n	1d68 <pinmap_pinout+0x38>
        if (map->pin == pin) {
    1d42:	9b02      	ldr	r3, [sp, #8]
    1d44:	681a      	ldr	r2, [r3, #0]
    1d46:	9b03      	ldr	r3, [sp, #12]
    1d48:	429a      	cmp	r2, r3
    1d4a:	d10a      	bne.n	1d62 <pinmap_pinout+0x32>
            pin_function(pin, map->function);
    1d4c:	9b02      	ldr	r3, [sp, #8]
    1d4e:	689b      	ldr	r3, [r3, #8]
    1d50:	4619      	mov	r1, r3
    1d52:	9803      	ldr	r0, [sp, #12]
    1d54:	f008 fa46 	bl	a1e4 <pin_function>

            pin_mode(pin, PullNone);
    1d58:	2100      	movs	r1, #0
    1d5a:	9803      	ldr	r0, [sp, #12]
    1d5c:	f008 fa78 	bl	a250 <pin_mode>
            return;
    1d60:	e011      	b.n	1d86 <pinmap_pinout+0x56>
        }
        map++;
    1d62:	9b02      	ldr	r3, [sp, #8]
    1d64:	330c      	adds	r3, #12
    1d66:	9302      	str	r3, [sp, #8]
    while (map->pin != NC) {
    1d68:	9b02      	ldr	r3, [sp, #8]
    1d6a:	681b      	ldr	r3, [r3, #0]
    1d6c:	f1b3 3fff 	cmp.w	r3, #4294967295	; 0xffffffff
    1d70:	d1e7      	bne.n	1d42 <pinmap_pinout+0x12>
    }
    MBED_ERROR1(MBED_MAKE_ERROR(MBED_MODULE_PLATFORM, MBED_ERROR_CODE_PINMAP_INVALID), "could not pinout", pin);
    1d72:	9a03      	ldr	r2, [sp, #12]
    1d74:	2300      	movs	r3, #0
    1d76:	9300      	str	r3, [sp, #0]
    1d78:	2300      	movs	r3, #0
    1d7a:	4904      	ldr	r1, [pc, #16]	; (1d8c <pinmap_pinout+0x5c>)
    1d7c:	4804      	ldr	r0, [pc, #16]	; (1d90 <pinmap_pinout+0x60>)
    1d7e:	f001 f82b 	bl	2dd8 <mbed_error>
    1d82:	e000      	b.n	1d86 <pinmap_pinout+0x56>
        return;
    1d84:	bf00      	nop
}
    1d86:	b005      	add	sp, #20
    1d88:	f85d fb04 	ldr.w	pc, [sp], #4
    1d8c:	00010acc 	.word	0x00010acc
    1d90:	80010130 	.word	0x80010130

00001d94 <pinmap_merge>:

uint32_t pinmap_merge(uint32_t a, uint32_t b)
{
    1d94:	b500      	push	{lr}
    1d96:	b085      	sub	sp, #20
    1d98:	9003      	str	r0, [sp, #12]
    1d9a:	9102      	str	r1, [sp, #8]
    // both are the same (inc both NC)
    if (a == b) {
    1d9c:	9a03      	ldr	r2, [sp, #12]
    1d9e:	9b02      	ldr	r3, [sp, #8]
    1da0:	429a      	cmp	r2, r3
    1da2:	d101      	bne.n	1da8 <pinmap_merge+0x14>
        return a;
    1da4:	9b03      	ldr	r3, [sp, #12]
    1da6:	e015      	b.n	1dd4 <pinmap_merge+0x40>
    }

    // one (or both) is not connected
    if (a == (uint32_t)NC) {
    1da8:	9b03      	ldr	r3, [sp, #12]
    1daa:	f1b3 3fff 	cmp.w	r3, #4294967295	; 0xffffffff
    1dae:	d101      	bne.n	1db4 <pinmap_merge+0x20>
        return b;
    1db0:	9b02      	ldr	r3, [sp, #8]
    1db2:	e00f      	b.n	1dd4 <pinmap_merge+0x40>
    }
    if (b == (uint32_t)NC) {
    1db4:	9b02      	ldr	r3, [sp, #8]
    1db6:	f1b3 3fff 	cmp.w	r3, #4294967295	; 0xffffffff
    1dba:	d101      	bne.n	1dc0 <pinmap_merge+0x2c>
        return a;
    1dbc:	9b03      	ldr	r3, [sp, #12]
    1dbe:	e009      	b.n	1dd4 <pinmap_merge+0x40>
    }

    // mis-match error case
    MBED_ERROR1(MBED_MAKE_ERROR(MBED_MODULE_PLATFORM, MBED_ERROR_CODE_PINMAP_INVALID), "pinmap mis-match", a);
    1dc0:	2300      	movs	r3, #0
    1dc2:	9300      	str	r3, [sp, #0]
    1dc4:	2300      	movs	r3, #0
    1dc6:	9a03      	ldr	r2, [sp, #12]
    1dc8:	4904      	ldr	r1, [pc, #16]	; (1ddc <pinmap_merge+0x48>)
    1dca:	4805      	ldr	r0, [pc, #20]	; (1de0 <pinmap_merge+0x4c>)
    1dcc:	f001 f804 	bl	2dd8 <mbed_error>
    return (uint32_t)NC;
    1dd0:	f04f 33ff 	mov.w	r3, #4294967295	; 0xffffffff
}
    1dd4:	4618      	mov	r0, r3
    1dd6:	b005      	add	sp, #20
    1dd8:	f85d fb04 	ldr.w	pc, [sp], #4
    1ddc:	00010ae0 	.word	0x00010ae0
    1de0:	80010130 	.word	0x80010130

00001de4 <pinmap_find_peripheral>:

uint32_t pinmap_find_peripheral(PinName pin, const PinMap *map)
{
    1de4:	b082      	sub	sp, #8
    1de6:	9001      	str	r0, [sp, #4]
    1de8:	9100      	str	r1, [sp, #0]
    while (map->pin != NC) {
    1dea:	e00a      	b.n	1e02 <pinmap_find_peripheral+0x1e>
        if (map->pin == pin) {
    1dec:	9b00      	ldr	r3, [sp, #0]
    1dee:	681a      	ldr	r2, [r3, #0]
    1df0:	9b01      	ldr	r3, [sp, #4]
    1df2:	429a      	cmp	r2, r3
    1df4:	d102      	bne.n	1dfc <pinmap_find_peripheral+0x18>
            return map->peripheral;
    1df6:	9b00      	ldr	r3, [sp, #0]
    1df8:	685b      	ldr	r3, [r3, #4]
    1dfa:	e009      	b.n	1e10 <pinmap_find_peripheral+0x2c>
        }
        map++;
    1dfc:	9b00      	ldr	r3, [sp, #0]
    1dfe:	330c      	adds	r3, #12
    1e00:	9300      	str	r3, [sp, #0]
    while (map->pin != NC) {
    1e02:	9b00      	ldr	r3, [sp, #0]
    1e04:	681b      	ldr	r3, [r3, #0]
    1e06:	f1b3 3fff 	cmp.w	r3, #4294967295	; 0xffffffff
    1e0a:	d1ef      	bne.n	1dec <pinmap_find_peripheral+0x8>
    }
    return (uint32_t)NC;
    1e0c:	f04f 33ff 	mov.w	r3, #4294967295	; 0xffffffff
}
    1e10:	4618      	mov	r0, r3
    1e12:	b002      	add	sp, #8
    1e14:	4770      	bx	lr
	...

00001e18 <pinmap_peripheral>:

uint32_t pinmap_peripheral(PinName pin, const PinMap *map)
{
    1e18:	b500      	push	{lr}
    1e1a:	b087      	sub	sp, #28
    1e1c:	9003      	str	r0, [sp, #12]
    1e1e:	9102      	str	r1, [sp, #8]
    uint32_t peripheral = (uint32_t)NC;
    1e20:	f04f 33ff 	mov.w	r3, #4294967295	; 0xffffffff
    1e24:	9305      	str	r3, [sp, #20]

    if (pin == (PinName)NC) {
    1e26:	9b03      	ldr	r3, [sp, #12]
    1e28:	f1b3 3fff 	cmp.w	r3, #4294967295	; 0xffffffff
    1e2c:	d102      	bne.n	1e34 <pinmap_peripheral+0x1c>
        return (uint32_t)NC;
    1e2e:	f04f 33ff 	mov.w	r3, #4294967295	; 0xffffffff
    1e32:	e011      	b.n	1e58 <pinmap_peripheral+0x40>
    }
    peripheral = pinmap_find_peripheral(pin, map);
    1e34:	9902      	ldr	r1, [sp, #8]
    1e36:	9803      	ldr	r0, [sp, #12]
    1e38:	f7ff ffd4 	bl	1de4 <pinmap_find_peripheral>
    1e3c:	9005      	str	r0, [sp, #20]
    if ((uint32_t)NC == peripheral) { // no mapping available
    1e3e:	9b05      	ldr	r3, [sp, #20]
    1e40:	f1b3 3fff 	cmp.w	r3, #4294967295	; 0xffffffff
    1e44:	d107      	bne.n	1e56 <pinmap_peripheral+0x3e>
        MBED_ERROR1(MBED_MAKE_ERROR(MBED_MODULE_PLATFORM, MBED_ERROR_CODE_PINMAP_INVALID), "pinmap not found for peripheral", peripheral);
    1e46:	2300      	movs	r3, #0
    1e48:	9300      	str	r3, [sp, #0]
    1e4a:	2300      	movs	r3, #0
    1e4c:	9a05      	ldr	r2, [sp, #20]
    1e4e:	4904      	ldr	r1, [pc, #16]	; (1e60 <pinmap_peripheral+0x48>)
    1e50:	4804      	ldr	r0, [pc, #16]	; (1e64 <pinmap_peripheral+0x4c>)
    1e52:	f000 ffc1 	bl	2dd8 <mbed_error>
    }
    return peripheral;
    1e56:	9b05      	ldr	r3, [sp, #20]
}
    1e58:	4618      	mov	r0, r3
    1e5a:	b007      	add	sp, #28
    1e5c:	f85d fb04 	ldr.w	pc, [sp], #4
    1e60:	00010af4 	.word	0x00010af4
    1e64:	80010130 	.word	0x80010130

00001e68 <read_us>:
#if defined(MBED_CPU_STATS_ENABLED) && defined(DEVICE_LPTICKER)
static ticker_data_t *sleep_ticker = NULL;
#endif

static inline us_timestamp_t read_us(void)
{
    1e68:	b410      	push	{r4}
    if (NULL == sleep_ticker) {
        sleep_ticker = (ticker_data_t *)get_lp_ticker_data();
    }
    return ticker_read_us(sleep_ticker);
#else
    return 0;
    1e6a:	f04f 0300 	mov.w	r3, #0
    1e6e:	f04f 0400 	mov.w	r4, #0
#endif
}
    1e72:	4618      	mov	r0, r3
    1e74:	4621      	mov	r1, r4
    1e76:	f85d 4b04 	ldr.w	r4, [sp], #4
    1e7a:	4770      	bx	lr

00001e7c <sleep_manager_lock_deep_sleep_internal>:
}

#endif // MBED_SLEEP_TRACING_ENABLED

void sleep_manager_lock_deep_sleep_internal(void)
{
    1e7c:	b500      	push	{lr}
    1e7e:	b083      	sub	sp, #12
    core_util_critical_section_enter();
    1e80:	f000 fe96 	bl	2bb0 <core_util_critical_section_enter>
    if (deep_sleep_lock == USHRT_MAX) {
    1e84:	4b0d      	ldr	r3, [pc, #52]	; (1ebc <sleep_manager_lock_deep_sleep_internal+0x40>)
    1e86:	881b      	ldrh	r3, [r3, #0]
    1e88:	f64f 72ff 	movw	r2, #65535	; 0xffff
    1e8c:	4293      	cmp	r3, r2
    1e8e:	d10b      	bne.n	1ea8 <sleep_manager_lock_deep_sleep_internal+0x2c>
        core_util_critical_section_exit();
    1e90:	f000 fea8 	bl	2be4 <core_util_critical_section_exit>
        MBED_ERROR1(MBED_MAKE_ERROR(MBED_MODULE_HAL, MBED_ERROR_CODE_OVERFLOW), "DeepSleepLock overflow (> USHRT_MAX)", deep_sleep_lock);
    1e94:	4b09      	ldr	r3, [pc, #36]	; (1ebc <sleep_manager_lock_deep_sleep_internal+0x40>)
    1e96:	881b      	ldrh	r3, [r3, #0]
    1e98:	461a      	mov	r2, r3
    1e9a:	2300      	movs	r3, #0
    1e9c:	9300      	str	r3, [sp, #0]
    1e9e:	2300      	movs	r3, #0
    1ea0:	4907      	ldr	r1, [pc, #28]	; (1ec0 <sleep_manager_lock_deep_sleep_internal+0x44>)
    1ea2:	4808      	ldr	r0, [pc, #32]	; (1ec4 <sleep_manager_lock_deep_sleep_internal+0x48>)
    1ea4:	f000 ff98 	bl	2dd8 <mbed_error>
    }
    core_util_atomic_incr_u16(&deep_sleep_lock, 1);
    1ea8:	2101      	movs	r1, #1
    1eaa:	4804      	ldr	r0, [pc, #16]	; (1ebc <sleep_manager_lock_deep_sleep_internal+0x40>)
    1eac:	f000 feb0 	bl	2c10 <core_util_atomic_incr_u16>
    core_util_critical_section_exit();
    1eb0:	f000 fe98 	bl	2be4 <core_util_critical_section_exit>
}
    1eb4:	bf00      	nop
    1eb6:	b003      	add	sp, #12
    1eb8:	f85d fb04 	ldr.w	pc, [sp], #4
    1ebc:	20000c5a 	.word	0x20000c5a
    1ec0:	00010b34 	.word	0x00010b34
    1ec4:	80040123 	.word	0x80040123

00001ec8 <sleep_manager_unlock_deep_sleep_internal>:

void sleep_manager_unlock_deep_sleep_internal(void)
{
    1ec8:	b500      	push	{lr}
    1eca:	b083      	sub	sp, #12
    core_util_critical_section_enter();
    1ecc:	f000 fe70 	bl	2bb0 <core_util_critical_section_enter>
    if (deep_sleep_lock == 0) {
    1ed0:	4b0c      	ldr	r3, [pc, #48]	; (1f04 <sleep_manager_unlock_deep_sleep_internal+0x3c>)
    1ed2:	881b      	ldrh	r3, [r3, #0]
    1ed4:	2b00      	cmp	r3, #0
    1ed6:	d10b      	bne.n	1ef0 <sleep_manager_unlock_deep_sleep_internal+0x28>
        core_util_critical_section_exit();
    1ed8:	f000 fe84 	bl	2be4 <core_util_critical_section_exit>
        MBED_ERROR1(MBED_MAKE_ERROR(MBED_MODULE_HAL, MBED_ERROR_CODE_UNDERFLOW), "DeepSleepLock underflow (< 0)", deep_sleep_lock);
    1edc:	4b09      	ldr	r3, [pc, #36]	; (1f04 <sleep_manager_unlock_deep_sleep_internal+0x3c>)
    1ede:	881b      	ldrh	r3, [r3, #0]
    1ee0:	461a      	mov	r2, r3
    1ee2:	2300      	movs	r3, #0
    1ee4:	9300      	str	r3, [sp, #0]
    1ee6:	2300      	movs	r3, #0
    1ee8:	4907      	ldr	r1, [pc, #28]	; (1f08 <sleep_manager_unlock_deep_sleep_internal+0x40>)
    1eea:	4808      	ldr	r0, [pc, #32]	; (1f0c <sleep_manager_unlock_deep_sleep_internal+0x44>)
    1eec:	f000 ff74 	bl	2dd8 <mbed_error>
    }
    core_util_atomic_decr_u16(&deep_sleep_lock, 1);
    1ef0:	2101      	movs	r1, #1
    1ef2:	4804      	ldr	r0, [pc, #16]	; (1f04 <sleep_manager_unlock_deep_sleep_internal+0x3c>)
    1ef4:	f000 feb2 	bl	2c5c <core_util_atomic_decr_u16>
    core_util_critical_section_exit();
    1ef8:	f000 fe74 	bl	2be4 <core_util_critical_section_exit>
}
    1efc:	bf00      	nop
    1efe:	b003      	add	sp, #12
    1f00:	f85d fb04 	ldr.w	pc, [sp], #4
    1f04:	20000c5a 	.word	0x20000c5a
    1f08:	00010b5c 	.word	0x00010b5c
    1f0c:	80040124 	.word	0x80040124

00001f10 <sleep_manager_sleep_auto>:
{
    return deep_sleep_lock == 0 ? true : false;
}

void sleep_manager_sleep_auto(void)
{
    1f10:	b510      	push	{r4, lr}
    1f12:	b086      	sub	sp, #24
#ifdef MBED_SLEEP_TRACING_ENABLED
    sleep_tracker_print_stats();
#endif
    core_util_critical_section_enter();
    1f14:	f000 fe4c 	bl	2bb0 <core_util_critical_section_enter>
    us_timestamp_t start = read_us();
    1f18:	f7ff ffa6 	bl	1e68 <read_us>
    1f1c:	e9cd 0104 	strd	r0, r1, [sp, #16]
    bool deep = false;
    1f20:	2300      	movs	r3, #0
    1f22:	f88d 300f 	strb.w	r3, [sp, #15]

// debug profile should keep debuggers attached, no deep sleep allowed
#ifdef MBED_DEBUG
    hal_sleep();
    1f26:	f008 f9f1 	bl	a30c <hal_sleep>
    } else {
        hal_sleep();
    }
#endif

    us_timestamp_t end = read_us();
    1f2a:	f7ff ff9d 	bl	1e68 <read_us>
    1f2e:	e9cd 0100 	strd	r0, r1, [sp]
    if (true == deep) {
    1f32:	f89d 300f 	ldrb.w	r3, [sp, #15]
    1f36:	2b00      	cmp	r3, #0
    1f38:	d010      	beq.n	1f5c <sleep_manager_sleep_auto+0x4c>
        deep_sleep_time += end - start;
    1f3a:	e9dd 1200 	ldrd	r1, r2, [sp]
    1f3e:	e9dd 3404 	ldrd	r3, r4, [sp, #16]
    1f42:	1ac9      	subs	r1, r1, r3
    1f44:	eb62 0204 	sbc.w	r2, r2, r4
    1f48:	4b0f      	ldr	r3, [pc, #60]	; (1f88 <sleep_manager_sleep_auto+0x78>)
    1f4a:	e9d3 3400 	ldrd	r3, r4, [r3]
    1f4e:	185b      	adds	r3, r3, r1
    1f50:	eb44 0402 	adc.w	r4, r4, r2
    1f54:	4a0c      	ldr	r2, [pc, #48]	; (1f88 <sleep_manager_sleep_auto+0x78>)
    1f56:	e9c2 3400 	strd	r3, r4, [r2]
    1f5a:	e00f      	b.n	1f7c <sleep_manager_sleep_auto+0x6c>
    } else {
        sleep_time += end - start;
    1f5c:	e9dd 1200 	ldrd	r1, r2, [sp]
    1f60:	e9dd 3404 	ldrd	r3, r4, [sp, #16]
    1f64:	1ac9      	subs	r1, r1, r3
    1f66:	eb62 0204 	sbc.w	r2, r2, r4
    1f6a:	4b08      	ldr	r3, [pc, #32]	; (1f8c <sleep_manager_sleep_auto+0x7c>)
    1f6c:	e9d3 3400 	ldrd	r3, r4, [r3]
    1f70:	185b      	adds	r3, r3, r1
    1f72:	eb44 0402 	adc.w	r4, r4, r2
    1f76:	4a05      	ldr	r2, [pc, #20]	; (1f8c <sleep_manager_sleep_auto+0x7c>)
    1f78:	e9c2 3400 	strd	r3, r4, [r2]
    }
    core_util_critical_section_exit();
    1f7c:	f000 fe32 	bl	2be4 <core_util_critical_section_exit>
}
    1f80:	bf00      	nop
    1f82:	b006      	add	sp, #24
    1f84:	bd10      	pop	{r4, pc}
    1f86:	bf00      	nop
    1f88:	20000c68 	.word	0x20000c68
    1f8c:	20000c60 	.word	0x20000c60

00001f90 <initialize>:

/*
 * Initialize a ticker instance.
 */
static void initialize(const ticker_data_t *ticker)
{
    1f90:	e92d 47f0 	stmdb	sp!, {r4, r5, r6, r7, r8, r9, sl, lr}
    1f94:	b08c      	sub	sp, #48	; 0x30
    1f96:	9003      	str	r0, [sp, #12]
    // return if the queue has already been initialized, in that case the
    // interface used by the queue is already initialized.
    if (ticker->queue->initialized) {
    1f98:	9b03      	ldr	r3, [sp, #12]
    1f9a:	685b      	ldr	r3, [r3, #4]
    1f9c:	f893 3038 	ldrb.w	r3, [r3, #56]	; 0x38
    1fa0:	2b00      	cmp	r3, #0
    1fa2:	f040 80e4 	bne.w	216e <initialize+0x1de>
        return;
    }

    ticker->interface->init();
    1fa6:	9b03      	ldr	r3, [sp, #12]
    1fa8:	681b      	ldr	r3, [r3, #0]
    1faa:	681b      	ldr	r3, [r3, #0]
    1fac:	4798      	blx	r3

    const ticker_info_t *info = ticker->interface->get_info();
    1fae:	9b03      	ldr	r3, [sp, #12]
    1fb0:	681b      	ldr	r3, [r3, #0]
    1fb2:	699b      	ldr	r3, [r3, #24]
    1fb4:	4798      	blx	r3
    1fb6:	9008      	str	r0, [sp, #32]
    uint32_t frequency = info->frequency;
    1fb8:	9b08      	ldr	r3, [sp, #32]
    1fba:	681b      	ldr	r3, [r3, #0]
    1fbc:	930b      	str	r3, [sp, #44]	; 0x2c
    if (info->frequency == 0) {
    1fbe:	9b08      	ldr	r3, [sp, #32]
    1fc0:	681b      	ldr	r3, [r3, #0]
    1fc2:	2b00      	cmp	r3, #0
    1fc4:	d106      	bne.n	1fd4 <initialize+0x44>
        MBED_ASSERT(0);
    1fc6:	2229      	movs	r2, #41	; 0x29
    1fc8:	496b      	ldr	r1, [pc, #428]	; (2178 <initialize+0x1e8>)
    1fca:	486c      	ldr	r0, [pc, #432]	; (217c <initialize+0x1ec>)
    1fcc:	f000 fd22 	bl	2a14 <mbed_assert_internal>
        frequency = 1000000;
    1fd0:	4b6b      	ldr	r3, [pc, #428]	; (2180 <initialize+0x1f0>)
    1fd2:	930b      	str	r3, [sp, #44]	; 0x2c
    }

    uint8_t frequency_shifts = 0;
    1fd4:	2300      	movs	r3, #0
    1fd6:	f88d 302b 	strb.w	r3, [sp, #43]	; 0x2b
    for (uint8_t i = 31; i > 0; --i) {
    1fda:	231f      	movs	r3, #31
    1fdc:	f88d 302a 	strb.w	r3, [sp, #42]	; 0x2a
    1fe0:	e012      	b.n	2008 <initialize+0x78>
        if ((1 << i) == frequency) {
    1fe2:	f89d 302a 	ldrb.w	r3, [sp, #42]	; 0x2a
    1fe6:	2201      	movs	r2, #1
    1fe8:	fa02 f303 	lsl.w	r3, r2, r3
    1fec:	461a      	mov	r2, r3
    1fee:	9b0b      	ldr	r3, [sp, #44]	; 0x2c
    1ff0:	429a      	cmp	r2, r3
    1ff2:	d104      	bne.n	1ffe <initialize+0x6e>
            frequency_shifts = i;
    1ff4:	f89d 302a 	ldrb.w	r3, [sp, #42]	; 0x2a
    1ff8:	f88d 302b 	strb.w	r3, [sp, #43]	; 0x2b
            break;
    1ffc:	e008      	b.n	2010 <initialize+0x80>
    for (uint8_t i = 31; i > 0; --i) {
    1ffe:	f89d 302a 	ldrb.w	r3, [sp, #42]	; 0x2a
    2002:	3b01      	subs	r3, #1
    2004:	f88d 302a 	strb.w	r3, [sp, #42]	; 0x2a
    2008:	f89d 302a 	ldrb.w	r3, [sp, #42]	; 0x2a
    200c:	2b00      	cmp	r3, #0
    200e:	d1e8      	bne.n	1fe2 <initialize+0x52>
        }
    }

    uint32_t bits = info->bits;
    2010:	9b08      	ldr	r3, [sp, #32]
    2012:	685b      	ldr	r3, [r3, #4]
    2014:	9309      	str	r3, [sp, #36]	; 0x24
    if ((info->bits > 32) || (info->bits < 4)) {
    2016:	9b08      	ldr	r3, [sp, #32]
    2018:	685b      	ldr	r3, [r3, #4]
    201a:	2b20      	cmp	r3, #32
    201c:	d803      	bhi.n	2026 <initialize+0x96>
    201e:	9b08      	ldr	r3, [sp, #32]
    2020:	685b      	ldr	r3, [r3, #4]
    2022:	2b03      	cmp	r3, #3
    2024:	d806      	bhi.n	2034 <initialize+0xa4>
        MBED_ASSERT(0);
    2026:	2237      	movs	r2, #55	; 0x37
    2028:	4953      	ldr	r1, [pc, #332]	; (2178 <initialize+0x1e8>)
    202a:	4854      	ldr	r0, [pc, #336]	; (217c <initialize+0x1ec>)
    202c:	f000 fcf2 	bl	2a14 <mbed_assert_internal>
        bits = 32;
    2030:	2320      	movs	r3, #32
    2032:	9309      	str	r3, [sp, #36]	; 0x24
    }
    uint32_t max_delta = 0x7 << (bits - 4); // 7/16th
    2034:	9b09      	ldr	r3, [sp, #36]	; 0x24
    2036:	3b04      	subs	r3, #4
    2038:	2207      	movs	r2, #7
    203a:	fa02 f303 	lsl.w	r3, r2, r3
    203e:	9307      	str	r3, [sp, #28]
    uint64_t max_delta_us =
        ((uint64_t)max_delta * 1000000 + frequency - 1) / frequency;
    2040:	9b07      	ldr	r3, [sp, #28]
    2042:	4619      	mov	r1, r3
    2044:	f04f 0200 	mov.w	r2, #0
    2048:	460b      	mov	r3, r1
    204a:	4614      	mov	r4, r2
    204c:	0160      	lsls	r0, r4, #5
    204e:	9001      	str	r0, [sp, #4]
    2050:	9801      	ldr	r0, [sp, #4]
    2052:	ea40 60d3 	orr.w	r0, r0, r3, lsr #27
    2056:	9001      	str	r0, [sp, #4]
    2058:	015b      	lsls	r3, r3, #5
    205a:	9300      	str	r3, [sp, #0]
    205c:	e9dd 3400 	ldrd	r3, r4, [sp]
    2060:	1a5b      	subs	r3, r3, r1
    2062:	eb64 0402 	sbc.w	r4, r4, r2
    2066:	ea4f 2a44 	mov.w	sl, r4, lsl #9
    206a:	ea4a 5ad3 	orr.w	sl, sl, r3, lsr #23
    206e:	ea4f 2943 	mov.w	r9, r3, lsl #9
    2072:	464b      	mov	r3, r9
    2074:	4654      	mov	r4, sl
    2076:	185b      	adds	r3, r3, r1
    2078:	eb44 0402 	adc.w	r4, r4, r2
    207c:	01a6      	lsls	r6, r4, #6
    207e:	ea46 6693 	orr.w	r6, r6, r3, lsr #26
    2082:	019d      	lsls	r5, r3, #6
    2084:	1aed      	subs	r5, r5, r3
    2086:	eb66 0604 	sbc.w	r6, r6, r4
    208a:	1949      	adds	r1, r1, r5
    208c:	eb42 0206 	adc.w	r2, r2, r6
    2090:	9b0b      	ldr	r3, [sp, #44]	; 0x2c
    2092:	f04f 0400 	mov.w	r4, #0
    2096:	185b      	adds	r3, r3, r1
    2098:	eb44 0402 	adc.w	r4, r4, r2
    209c:	f113 30ff 	adds.w	r0, r3, #4294967295	; 0xffffffff
    20a0:	f144 31ff 	adc.w	r1, r4, #4294967295	; 0xffffffff
    20a4:	9b0b      	ldr	r3, [sp, #44]	; 0x2c
    20a6:	f04f 0400 	mov.w	r4, #0
    uint64_t max_delta_us =
    20aa:	461a      	mov	r2, r3
    20ac:	4623      	mov	r3, r4
    20ae:	f7ff f9e5 	bl	147c <__aeabi_uldivmod>
    20b2:	4603      	mov	r3, r0
    20b4:	460c      	mov	r4, r1
    20b6:	e9cd 3404 	strd	r3, r4, [sp, #16]

    ticker->queue->event_handler = NULL;
    20ba:	9b03      	ldr	r3, [sp, #12]
    20bc:	685b      	ldr	r3, [r3, #4]
    20be:	2200      	movs	r2, #0
    20c0:	601a      	str	r2, [r3, #0]
    ticker->queue->head = NULL;
    20c2:	9b03      	ldr	r3, [sp, #12]
    20c4:	685b      	ldr	r3, [r3, #4]
    20c6:	2200      	movs	r2, #0
    20c8:	605a      	str	r2, [r3, #4]
    ticker->queue->tick_last_read = ticker->interface->read();
    20ca:	9b03      	ldr	r3, [sp, #12]
    20cc:	685c      	ldr	r4, [r3, #4]
    20ce:	9b03      	ldr	r3, [sp, #12]
    20d0:	681b      	ldr	r3, [r3, #0]
    20d2:	685b      	ldr	r3, [r3, #4]
    20d4:	4798      	blx	r3
    20d6:	4603      	mov	r3, r0
    20d8:	6223      	str	r3, [r4, #32]
    ticker->queue->tick_remainder = 0;
    20da:	9b03      	ldr	r3, [sp, #12]
    20dc:	685a      	ldr	r2, [r3, #4]
    20de:	f04f 0300 	mov.w	r3, #0
    20e2:	f04f 0400 	mov.w	r4, #0
    20e6:	e9c2 340a 	strd	r3, r4, [r2, #40]	; 0x28
    ticker->queue->frequency = frequency;
    20ea:	9b03      	ldr	r3, [sp, #12]
    20ec:	685b      	ldr	r3, [r3, #4]
    20ee:	9a0b      	ldr	r2, [sp, #44]	; 0x2c
    20f0:	609a      	str	r2, [r3, #8]
    ticker->queue->frequency_shifts = frequency_shifts;
    20f2:	9b03      	ldr	r3, [sp, #12]
    20f4:	685b      	ldr	r3, [r3, #4]
    20f6:	f89d 202b 	ldrb.w	r2, [sp, #43]	; 0x2b
    20fa:	f883 2039 	strb.w	r2, [r3, #57]	; 0x39
    ticker->queue->bitmask = ((uint64_t)1 << bits) - 1;
    20fe:	9b03      	ldr	r3, [sp, #12]
    2100:	685d      	ldr	r5, [r3, #4]
    2102:	f04f 0301 	mov.w	r3, #1
    2106:	f04f 0400 	mov.w	r4, #0
    210a:	9a09      	ldr	r2, [sp, #36]	; 0x24
    210c:	f1a2 0020 	sub.w	r0, r2, #32
    2110:	f1c2 0120 	rsb	r1, r2, #32
    2114:	fa04 f802 	lsl.w	r8, r4, r2
    2118:	fa03 f000 	lsl.w	r0, r3, r0
    211c:	ea48 0800 	orr.w	r8, r8, r0
    2120:	fa23 f101 	lsr.w	r1, r3, r1
    2124:	ea48 0801 	orr.w	r8, r8, r1
    2128:	fa03 f702 	lsl.w	r7, r3, r2
    212c:	463b      	mov	r3, r7
    212e:	3b01      	subs	r3, #1
    2130:	60eb      	str	r3, [r5, #12]
    ticker->queue->max_delta = max_delta;
    2132:	9b03      	ldr	r3, [sp, #12]
    2134:	685b      	ldr	r3, [r3, #4]
    2136:	9a07      	ldr	r2, [sp, #28]
    2138:	611a      	str	r2, [r3, #16]
    ticker->queue->max_delta_us = max_delta_us;
    213a:	9b03      	ldr	r3, [sp, #12]
    213c:	685a      	ldr	r2, [r3, #4]
    213e:	e9dd 3404 	ldrd	r3, r4, [sp, #16]
    2142:	e9c2 3406 	strd	r3, r4, [r2, #24]
    ticker->queue->present_time = 0;
    2146:	9b03      	ldr	r3, [sp, #12]
    2148:	685a      	ldr	r2, [r3, #4]
    214a:	f04f 0300 	mov.w	r3, #0
    214e:	f04f 0400 	mov.w	r4, #0
    2152:	e9c2 340c 	strd	r3, r4, [r2, #48]	; 0x30
    ticker->queue->initialized = true;
    2156:	9b03      	ldr	r3, [sp, #12]
    2158:	685b      	ldr	r3, [r3, #4]
    215a:	2201      	movs	r2, #1
    215c:	f883 2038 	strb.w	r2, [r3, #56]	; 0x38

    update_present_time(ticker);
    2160:	9803      	ldr	r0, [sp, #12]
    2162:	f000 f80f 	bl	2184 <update_present_time>
    schedule_interrupt(ticker);
    2166:	9803      	ldr	r0, [sp, #12]
    2168:	f000 fa06 	bl	2578 <schedule_interrupt>
    216c:	e000      	b.n	2170 <initialize+0x1e0>
        return;
    216e:	bf00      	nop
}
    2170:	b00c      	add	sp, #48	; 0x30
    2172:	e8bd 87f0 	ldmia.w	sp!, {r4, r5, r6, r7, r8, r9, sl, pc}
    2176:	bf00      	nop
    2178:	00010b7c 	.word	0x00010b7c
    217c:	00010b9c 	.word	0x00010b9c
    2180:	000f4240 	.word	0x000f4240

00002184 <update_present_time>:

/**
 * Update the present timestamp value of a ticker.
 */
static void update_present_time(const ticker_data_t *const ticker)
{
    2184:	e92d 47f0 	stmdb	sp!, {r4, r5, r6, r7, r8, r9, sl, lr}
    2188:	b096      	sub	sp, #88	; 0x58
    218a:	900b      	str	r0, [sp, #44]	; 0x2c
    ticker_event_queue_t *queue = ticker->queue;
    218c:	9b0b      	ldr	r3, [sp, #44]	; 0x2c
    218e:	685b      	ldr	r3, [r3, #4]
    2190:	9313      	str	r3, [sp, #76]	; 0x4c
    uint32_t ticker_time = ticker->interface->read();
    2192:	9b0b      	ldr	r3, [sp, #44]	; 0x2c
    2194:	681b      	ldr	r3, [r3, #0]
    2196:	685b      	ldr	r3, [r3, #4]
    2198:	4798      	blx	r3
    219a:	9012      	str	r0, [sp, #72]	; 0x48
    if (ticker_time == ticker->queue->tick_last_read) {
    219c:	9b0b      	ldr	r3, [sp, #44]	; 0x2c
    219e:	685b      	ldr	r3, [r3, #4]
    21a0:	6a1a      	ldr	r2, [r3, #32]
    21a2:	9b12      	ldr	r3, [sp, #72]	; 0x48
    21a4:	429a      	cmp	r2, r3
    21a6:	f000 812e 	beq.w	2406 <update_present_time+0x282>
        // No work to do
        return;
    }

    uint64_t elapsed_ticks = (ticker_time - queue->tick_last_read) & queue->bitmask;
    21aa:	9b13      	ldr	r3, [sp, #76]	; 0x4c
    21ac:	6a1a      	ldr	r2, [r3, #32]
    21ae:	9b12      	ldr	r3, [sp, #72]	; 0x48
    21b0:	1a9a      	subs	r2, r3, r2
    21b2:	9b13      	ldr	r3, [sp, #76]	; 0x4c
    21b4:	68db      	ldr	r3, [r3, #12]
    21b6:	4013      	ands	r3, r2
    21b8:	f04f 0400 	mov.w	r4, #0
    21bc:	e9cd 3410 	strd	r3, r4, [sp, #64]	; 0x40
    queue->tick_last_read = ticker_time;
    21c0:	9a13      	ldr	r2, [sp, #76]	; 0x4c
    21c2:	9b12      	ldr	r3, [sp, #72]	; 0x48
    21c4:	6213      	str	r3, [r2, #32]

    uint64_t elapsed_us;
    if (1000000 == queue->frequency) {
    21c6:	9b13      	ldr	r3, [sp, #76]	; 0x4c
    21c8:	689a      	ldr	r2, [r3, #8]
    21ca:	4b91      	ldr	r3, [pc, #580]	; (2410 <update_present_time+0x28c>)
    21cc:	429a      	cmp	r2, r3
    21ce:	d104      	bne.n	21da <update_present_time+0x56>
        // Optimized for 1MHz

        elapsed_us = elapsed_ticks;
    21d0:	e9dd 3410 	ldrd	r3, r4, [sp, #64]	; 0x40
    21d4:	e9cd 3414 	strd	r3, r4, [sp, #80]	; 0x50
    21d8:	e109      	b.n	23ee <update_present_time+0x26a>
    } else if (0 != queue->frequency_shifts) {
    21da:	9b13      	ldr	r3, [sp, #76]	; 0x4c
    21dc:	f893 3039 	ldrb.w	r3, [r3, #57]	; 0x39
    21e0:	2b00      	cmp	r3, #0
    21e2:	f000 808f 	beq.w	2304 <update_present_time+0x180>
        // Optimized for frequencies divisible by 2
        uint64_t us_x_ticks = elapsed_ticks * 1000000;
    21e6:	e9dd 1210 	ldrd	r1, r2, [sp, #64]	; 0x40
    21ea:	460b      	mov	r3, r1
    21ec:	4614      	mov	r4, r2
    21ee:	0160      	lsls	r0, r4, #5
    21f0:	9001      	str	r0, [sp, #4]
    21f2:	9801      	ldr	r0, [sp, #4]
    21f4:	ea40 60d3 	orr.w	r0, r0, r3, lsr #27
    21f8:	9001      	str	r0, [sp, #4]
    21fa:	015b      	lsls	r3, r3, #5
    21fc:	9300      	str	r3, [sp, #0]
    21fe:	e9dd 3400 	ldrd	r3, r4, [sp]
    2202:	1a5b      	subs	r3, r3, r1
    2204:	eb64 0402 	sbc.w	r4, r4, r2
    2208:	0260      	lsls	r0, r4, #9
    220a:	9003      	str	r0, [sp, #12]
    220c:	9803      	ldr	r0, [sp, #12]
    220e:	ea40 50d3 	orr.w	r0, r0, r3, lsr #23
    2212:	9003      	str	r0, [sp, #12]
    2214:	025b      	lsls	r3, r3, #9
    2216:	9302      	str	r3, [sp, #8]
    2218:	e9dd 3402 	ldrd	r3, r4, [sp, #8]
    221c:	185b      	adds	r3, r3, r1
    221e:	eb44 0402 	adc.w	r4, r4, r2
    2222:	01a0      	lsls	r0, r4, #6
    2224:	9005      	str	r0, [sp, #20]
    2226:	9805      	ldr	r0, [sp, #20]
    2228:	ea40 6093 	orr.w	r0, r0, r3, lsr #26
    222c:	9005      	str	r0, [sp, #20]
    222e:	0198      	lsls	r0, r3, #6
    2230:	9004      	str	r0, [sp, #16]
    2232:	e9dd 5604 	ldrd	r5, r6, [sp, #16]
    2236:	1aed      	subs	r5, r5, r3
    2238:	eb66 0604 	sbc.w	r6, r6, r4
    223c:	462b      	mov	r3, r5
    223e:	4634      	mov	r4, r6
    2240:	185b      	adds	r3, r3, r1
    2242:	eb44 0402 	adc.w	r4, r4, r2
    2246:	e9cd 340e 	strd	r3, r4, [sp, #56]	; 0x38
        elapsed_us = us_x_ticks >> queue->frequency_shifts;
    224a:	9b13      	ldr	r3, [sp, #76]	; 0x4c
    224c:	f893 3039 	ldrb.w	r3, [r3, #57]	; 0x39
    2250:	461a      	mov	r2, r3
    2252:	e9dd 340e 	ldrd	r3, r4, [sp, #56]	; 0x38
    2256:	f1c2 0020 	rsb	r0, r2, #32
    225a:	f1a2 0120 	sub.w	r1, r2, #32
    225e:	fa23 f902 	lsr.w	r9, r3, r2
    2262:	fa04 f000 	lsl.w	r0, r4, r0
    2266:	ea49 0900 	orr.w	r9, r9, r0
    226a:	fa24 f101 	lsr.w	r1, r4, r1
    226e:	ea49 0901 	orr.w	r9, r9, r1
    2272:	fa24 fa02 	lsr.w	sl, r4, r2
    2276:	e9cd 9a14 	strd	r9, sl, [sp, #80]	; 0x50

        // Update remainder
        queue->tick_remainder += us_x_ticks - (elapsed_us << queue->frequency_shifts);
    227a:	9b13      	ldr	r3, [sp, #76]	; 0x4c
    227c:	e9d3 560a 	ldrd	r5, r6, [r3, #40]	; 0x28
    2280:	9b13      	ldr	r3, [sp, #76]	; 0x4c
    2282:	f893 3039 	ldrb.w	r3, [r3, #57]	; 0x39
    2286:	461a      	mov	r2, r3
    2288:	e9dd 3414 	ldrd	r3, r4, [sp, #80]	; 0x50
    228c:	f1a2 0020 	sub.w	r0, r2, #32
    2290:	f1c2 0120 	rsb	r1, r2, #32
    2294:	fa04 f802 	lsl.w	r8, r4, r2
    2298:	fa03 f000 	lsl.w	r0, r3, r0
    229c:	ea48 0800 	orr.w	r8, r8, r0
    22a0:	fa23 f101 	lsr.w	r1, r3, r1
    22a4:	ea48 0801 	orr.w	r8, r8, r1
    22a8:	fa03 f702 	lsl.w	r7, r3, r2
    22ac:	e9dd 340e 	ldrd	r3, r4, [sp, #56]	; 0x38
    22b0:	1bdb      	subs	r3, r3, r7
    22b2:	eb64 0408 	sbc.w	r4, r4, r8
    22b6:	195b      	adds	r3, r3, r5
    22b8:	eb44 0406 	adc.w	r4, r4, r6
    22bc:	9a13      	ldr	r2, [sp, #76]	; 0x4c
    22be:	e9c2 340a 	strd	r3, r4, [r2, #40]	; 0x28
        if (queue->tick_remainder >= queue->frequency) {
    22c2:	9b13      	ldr	r3, [sp, #76]	; 0x4c
    22c4:	e9d3 120a 	ldrd	r1, r2, [r3, #40]	; 0x28
    22c8:	9b13      	ldr	r3, [sp, #76]	; 0x4c
    22ca:	689b      	ldr	r3, [r3, #8]
    22cc:	f04f 0400 	mov.w	r4, #0
    22d0:	42a2      	cmp	r2, r4
    22d2:	bf08      	it	eq
    22d4:	4299      	cmpeq	r1, r3
    22d6:	f0c0 808a 	bcc.w	23ee <update_present_time+0x26a>
            elapsed_us += 1;
    22da:	e9dd 3414 	ldrd	r3, r4, [sp, #80]	; 0x50
    22de:	3301      	adds	r3, #1
    22e0:	f144 0400 	adc.w	r4, r4, #0
    22e4:	e9cd 3414 	strd	r3, r4, [sp, #80]	; 0x50
            queue->tick_remainder -= queue->frequency;
    22e8:	9b13      	ldr	r3, [sp, #76]	; 0x4c
    22ea:	e9d3 120a 	ldrd	r1, r2, [r3, #40]	; 0x28
    22ee:	9b13      	ldr	r3, [sp, #76]	; 0x4c
    22f0:	689b      	ldr	r3, [r3, #8]
    22f2:	f04f 0400 	mov.w	r4, #0
    22f6:	1acb      	subs	r3, r1, r3
    22f8:	eb62 0404 	sbc.w	r4, r2, r4
    22fc:	9a13      	ldr	r2, [sp, #76]	; 0x4c
    22fe:	e9c2 340a 	strd	r3, r4, [r2, #40]	; 0x28
    2302:	e074      	b.n	23ee <update_present_time+0x26a>
        }
    } else {
        // General case

        uint64_t us_x_ticks = elapsed_ticks * 1000000;
    2304:	e9dd 1210 	ldrd	r1, r2, [sp, #64]	; 0x40
    2308:	460b      	mov	r3, r1
    230a:	4614      	mov	r4, r2
    230c:	0160      	lsls	r0, r4, #5
    230e:	9007      	str	r0, [sp, #28]
    2310:	9807      	ldr	r0, [sp, #28]
    2312:	ea40 60d3 	orr.w	r0, r0, r3, lsr #27
    2316:	9007      	str	r0, [sp, #28]
    2318:	015b      	lsls	r3, r3, #5
    231a:	9306      	str	r3, [sp, #24]
    231c:	e9dd 3406 	ldrd	r3, r4, [sp, #24]
    2320:	1a5b      	subs	r3, r3, r1
    2322:	eb64 0402 	sbc.w	r4, r4, r2
    2326:	0260      	lsls	r0, r4, #9
    2328:	9009      	str	r0, [sp, #36]	; 0x24
    232a:	9809      	ldr	r0, [sp, #36]	; 0x24
    232c:	ea40 50d3 	orr.w	r0, r0, r3, lsr #23
    2330:	9009      	str	r0, [sp, #36]	; 0x24
    2332:	025b      	lsls	r3, r3, #9
    2334:	9308      	str	r3, [sp, #32]
    2336:	e9dd 3408 	ldrd	r3, r4, [sp, #32]
    233a:	185b      	adds	r3, r3, r1
    233c:	eb44 0402 	adc.w	r4, r4, r2
    2340:	01a6      	lsls	r6, r4, #6
    2342:	ea46 6693 	orr.w	r6, r6, r3, lsr #26
    2346:	019d      	lsls	r5, r3, #6
    2348:	1aed      	subs	r5, r5, r3
    234a:	eb66 0604 	sbc.w	r6, r6, r4
    234e:	186b      	adds	r3, r5, r1
    2350:	eb46 0402 	adc.w	r4, r6, r2
    2354:	e9cd 340c 	strd	r3, r4, [sp, #48]	; 0x30
        elapsed_us = us_x_ticks / queue->frequency;
    2358:	9b13      	ldr	r3, [sp, #76]	; 0x4c
    235a:	689b      	ldr	r3, [r3, #8]
    235c:	f04f 0400 	mov.w	r4, #0
    2360:	461a      	mov	r2, r3
    2362:	4623      	mov	r3, r4
    2364:	e9dd 010c 	ldrd	r0, r1, [sp, #48]	; 0x30
    2368:	f7ff f888 	bl	147c <__aeabi_uldivmod>
    236c:	4603      	mov	r3, r0
    236e:	460c      	mov	r4, r1
    2370:	e9cd 3414 	strd	r3, r4, [sp, #80]	; 0x50

        // Update remainder
        queue->tick_remainder += us_x_ticks - elapsed_us * queue->frequency;
    2374:	9b13      	ldr	r3, [sp, #76]	; 0x4c
    2376:	e9d3 120a 	ldrd	r1, r2, [r3, #40]	; 0x28
    237a:	9b13      	ldr	r3, [sp, #76]	; 0x4c
    237c:	689b      	ldr	r3, [r3, #8]
    237e:	f04f 0400 	mov.w	r4, #0
    2382:	9814      	ldr	r0, [sp, #80]	; 0x50
    2384:	fb04 f500 	mul.w	r5, r4, r0
    2388:	9815      	ldr	r0, [sp, #84]	; 0x54
    238a:	fb03 f000 	mul.w	r0, r3, r0
    238e:	4428      	add	r0, r5
    2390:	9d14      	ldr	r5, [sp, #80]	; 0x50
    2392:	fba5 3403 	umull	r3, r4, r5, r3
    2396:	4420      	add	r0, r4
    2398:	4604      	mov	r4, r0
    239a:	e9dd 560c 	ldrd	r5, r6, [sp, #48]	; 0x30
    239e:	1aeb      	subs	r3, r5, r3
    23a0:	eb66 0404 	sbc.w	r4, r6, r4
    23a4:	185b      	adds	r3, r3, r1
    23a6:	eb44 0402 	adc.w	r4, r4, r2
    23aa:	9a13      	ldr	r2, [sp, #76]	; 0x4c
    23ac:	e9c2 340a 	strd	r3, r4, [r2, #40]	; 0x28
        if (queue->tick_remainder >= queue->frequency) {
    23b0:	9b13      	ldr	r3, [sp, #76]	; 0x4c
    23b2:	e9d3 120a 	ldrd	r1, r2, [r3, #40]	; 0x28
    23b6:	9b13      	ldr	r3, [sp, #76]	; 0x4c
    23b8:	689b      	ldr	r3, [r3, #8]
    23ba:	f04f 0400 	mov.w	r4, #0
    23be:	42a2      	cmp	r2, r4
    23c0:	bf08      	it	eq
    23c2:	4299      	cmpeq	r1, r3
    23c4:	d313      	bcc.n	23ee <update_present_time+0x26a>
            elapsed_us += 1;
    23c6:	e9dd 3414 	ldrd	r3, r4, [sp, #80]	; 0x50
    23ca:	3301      	adds	r3, #1
    23cc:	f144 0400 	adc.w	r4, r4, #0
    23d0:	e9cd 3414 	strd	r3, r4, [sp, #80]	; 0x50
            queue->tick_remainder -= queue->frequency;
    23d4:	9b13      	ldr	r3, [sp, #76]	; 0x4c
    23d6:	e9d3 120a 	ldrd	r1, r2, [r3, #40]	; 0x28
    23da:	9b13      	ldr	r3, [sp, #76]	; 0x4c
    23dc:	689b      	ldr	r3, [r3, #8]
    23de:	f04f 0400 	mov.w	r4, #0
    23e2:	1acb      	subs	r3, r1, r3
    23e4:	eb62 0404 	sbc.w	r4, r2, r4
    23e8:	9a13      	ldr	r2, [sp, #76]	; 0x4c
    23ea:	e9c2 340a 	strd	r3, r4, [r2, #40]	; 0x28
        }
    }

    // Update current time
    queue->present_time += elapsed_us;
    23ee:	9b13      	ldr	r3, [sp, #76]	; 0x4c
    23f0:	e9d3 120c 	ldrd	r1, r2, [r3, #48]	; 0x30
    23f4:	e9dd 3414 	ldrd	r3, r4, [sp, #80]	; 0x50
    23f8:	185b      	adds	r3, r3, r1
    23fa:	eb44 0402 	adc.w	r4, r4, r2
    23fe:	9a13      	ldr	r2, [sp, #76]	; 0x4c
    2400:	e9c2 340c 	strd	r3, r4, [r2, #48]	; 0x30
    2404:	e000      	b.n	2408 <update_present_time+0x284>
        return;
    2406:	bf00      	nop
}
    2408:	b016      	add	sp, #88	; 0x58
    240a:	e8bd 87f0 	ldmia.w	sp!, {r4, r5, r6, r7, r8, r9, sl, pc}
    240e:	bf00      	nop
    2410:	000f4240 	.word	0x000f4240

00002414 <compute_tick>:

/**
 * Given the absolute timestamp compute the hal tick timestamp.
 */
static timestamp_t compute_tick(const ticker_data_t *const ticker, us_timestamp_t timestamp)
{
    2414:	b570      	push	{r4, r5, r6, lr}
    2416:	b088      	sub	sp, #32
    2418:	9003      	str	r0, [sp, #12]
    241a:	e9cd 2300 	strd	r2, r3, [sp]
    ticker_event_queue_t *queue = ticker->queue;
    241e:	9b03      	ldr	r3, [sp, #12]
    2420:	685b      	ldr	r3, [r3, #4]
    2422:	9306      	str	r3, [sp, #24]
    us_timestamp_t delta_us = timestamp - queue->present_time;
    2424:	9b06      	ldr	r3, [sp, #24]
    2426:	e9d3 230c 	ldrd	r2, r3, [r3, #48]	; 0x30
    242a:	e9dd 0100 	ldrd	r0, r1, [sp]
    242e:	1a82      	subs	r2, r0, r2
    2430:	eb61 0303 	sbc.w	r3, r1, r3
    2434:	e9cd 2304 	strd	r2, r3, [sp, #16]

    timestamp_t delta = ticker->queue->max_delta;
    2438:	9b03      	ldr	r3, [sp, #12]
    243a:	685b      	ldr	r3, [r3, #4]
    243c:	691b      	ldr	r3, [r3, #16]
    243e:	9307      	str	r3, [sp, #28]
    if (delta_us <=  ticker->queue->max_delta_us) {
    2440:	9b03      	ldr	r3, [sp, #12]
    2442:	685b      	ldr	r3, [r3, #4]
    2444:	e9d3 0106 	ldrd	r0, r1, [r3, #24]
    2448:	e9dd 2304 	ldrd	r2, r3, [sp, #16]
    244c:	4299      	cmp	r1, r3
    244e:	bf08      	it	eq
    2450:	4290      	cmpeq	r0, r2
    2452:	d362      	bcc.n	251a <compute_tick+0x106>
        // Checking max_delta_us ensures the operation will not overflow

        if (1000000 == queue->frequency) {
    2454:	9b06      	ldr	r3, [sp, #24]
    2456:	689b      	ldr	r3, [r3, #8]
    2458:	4a35      	ldr	r2, [pc, #212]	; (2530 <compute_tick+0x11c>)
    245a:	4293      	cmp	r3, r2
    245c:	d10c      	bne.n	2478 <compute_tick+0x64>
            // Optimized for 1MHz

            delta = delta_us;
    245e:	9b04      	ldr	r3, [sp, #16]
    2460:	9307      	str	r3, [sp, #28]
            if (delta > ticker->queue->max_delta) {
    2462:	9b03      	ldr	r3, [sp, #12]
    2464:	685b      	ldr	r3, [r3, #4]
    2466:	691a      	ldr	r2, [r3, #16]
    2468:	9b07      	ldr	r3, [sp, #28]
    246a:	429a      	cmp	r2, r3
    246c:	d255      	bcs.n	251a <compute_tick+0x106>
                delta = ticker->queue->max_delta;
    246e:	9b03      	ldr	r3, [sp, #12]
    2470:	685b      	ldr	r3, [r3, #4]
    2472:	691b      	ldr	r3, [r3, #16]
    2474:	9307      	str	r3, [sp, #28]
    2476:	e050      	b.n	251a <compute_tick+0x106>
            }
        } else if (0 != queue->frequency_shifts) {
    2478:	9b06      	ldr	r3, [sp, #24]
    247a:	f893 3039 	ldrb.w	r3, [r3, #57]	; 0x39
    247e:	2b00      	cmp	r3, #0
    2480:	d029      	beq.n	24d6 <compute_tick+0xc2>
            // Optimized frequencies divisible by 2

            delta = (delta_us << ticker->queue->frequency_shifts) / 1000000;
    2482:	9b03      	ldr	r3, [sp, #12]
    2484:	685b      	ldr	r3, [r3, #4]
    2486:	f893 3039 	ldrb.w	r3, [r3, #57]	; 0x39
    248a:	4619      	mov	r1, r3
    248c:	e9dd 2304 	ldrd	r2, r3, [sp, #16]
    2490:	f1a1 0620 	sub.w	r6, r1, #32
    2494:	f1c1 0020 	rsb	r0, r1, #32
    2498:	fa03 f501 	lsl.w	r5, r3, r1
    249c:	fa02 f606 	lsl.w	r6, r2, r6
    24a0:	4335      	orrs	r5, r6
    24a2:	fa22 f000 	lsr.w	r0, r2, r0
    24a6:	4305      	orrs	r5, r0
    24a8:	fa02 f401 	lsl.w	r4, r2, r1
    24ac:	4a20      	ldr	r2, [pc, #128]	; (2530 <compute_tick+0x11c>)
    24ae:	f04f 0300 	mov.w	r3, #0
    24b2:	4620      	mov	r0, r4
    24b4:	4629      	mov	r1, r5
    24b6:	f7fe ffe1 	bl	147c <__aeabi_uldivmod>
    24ba:	4603      	mov	r3, r0
    24bc:	460c      	mov	r4, r1
    24be:	9307      	str	r3, [sp, #28]
            if (delta > ticker->queue->max_delta) {
    24c0:	9b03      	ldr	r3, [sp, #12]
    24c2:	685b      	ldr	r3, [r3, #4]
    24c4:	691a      	ldr	r2, [r3, #16]
    24c6:	9b07      	ldr	r3, [sp, #28]
    24c8:	429a      	cmp	r2, r3
    24ca:	d226      	bcs.n	251a <compute_tick+0x106>
                delta = ticker->queue->max_delta;
    24cc:	9b03      	ldr	r3, [sp, #12]
    24ce:	685b      	ldr	r3, [r3, #4]
    24d0:	691b      	ldr	r3, [r3, #16]
    24d2:	9307      	str	r3, [sp, #28]
    24d4:	e021      	b.n	251a <compute_tick+0x106>
            }
        } else {
            // General case

            delta = delta_us * queue->frequency / 1000000;
    24d6:	9b06      	ldr	r3, [sp, #24]
    24d8:	689b      	ldr	r3, [r3, #8]
    24da:	f04f 0400 	mov.w	r4, #0
    24de:	9a04      	ldr	r2, [sp, #16]
    24e0:	fb04 f102 	mul.w	r1, r4, r2
    24e4:	9a05      	ldr	r2, [sp, #20]
    24e6:	fb03 f202 	mul.w	r2, r3, r2
    24ea:	440a      	add	r2, r1
    24ec:	9904      	ldr	r1, [sp, #16]
    24ee:	fba1 0103 	umull	r0, r1, r1, r3
    24f2:	1853      	adds	r3, r2, r1
    24f4:	4619      	mov	r1, r3
    24f6:	4a0e      	ldr	r2, [pc, #56]	; (2530 <compute_tick+0x11c>)
    24f8:	f04f 0300 	mov.w	r3, #0
    24fc:	f7fe ffbe 	bl	147c <__aeabi_uldivmod>
    2500:	4603      	mov	r3, r0
    2502:	460c      	mov	r4, r1
    2504:	9307      	str	r3, [sp, #28]
            if (delta > ticker->queue->max_delta) {
    2506:	9b03      	ldr	r3, [sp, #12]
    2508:	685b      	ldr	r3, [r3, #4]
    250a:	691a      	ldr	r2, [r3, #16]
    250c:	9b07      	ldr	r3, [sp, #28]
    250e:	429a      	cmp	r2, r3
    2510:	d203      	bcs.n	251a <compute_tick+0x106>
                delta = ticker->queue->max_delta;
    2512:	9b03      	ldr	r3, [sp, #12]
    2514:	685b      	ldr	r3, [r3, #4]
    2516:	691b      	ldr	r3, [r3, #16]
    2518:	9307      	str	r3, [sp, #28]
            }
        }
    }
    return (queue->tick_last_read + delta) & queue->bitmask;
    251a:	9b06      	ldr	r3, [sp, #24]
    251c:	6a1a      	ldr	r2, [r3, #32]
    251e:	9b07      	ldr	r3, [sp, #28]
    2520:	441a      	add	r2, r3
    2522:	9b06      	ldr	r3, [sp, #24]
    2524:	68db      	ldr	r3, [r3, #12]
    2526:	4013      	ands	r3, r2
}
    2528:	4618      	mov	r0, r3
    252a:	b008      	add	sp, #32
    252c:	bd70      	pop	{r4, r5, r6, pc}
    252e:	bf00      	nop
    2530:	000f4240 	.word	0x000f4240

00002534 <_ticker_match_interval_passed>:

/**
 * Return 1 if the tick has incremented to or past match_tick, otherwise 0.
 */
int _ticker_match_interval_passed(timestamp_t prev_tick, timestamp_t cur_tick, timestamp_t match_tick)
{
    2534:	b084      	sub	sp, #16
    2536:	9003      	str	r0, [sp, #12]
    2538:	9102      	str	r1, [sp, #8]
    253a:	9201      	str	r2, [sp, #4]
    if (match_tick > prev_tick) {
    253c:	9a01      	ldr	r2, [sp, #4]
    253e:	9b03      	ldr	r3, [sp, #12]
    2540:	429a      	cmp	r2, r3
    2542:	d90b      	bls.n	255c <_ticker_match_interval_passed+0x28>
        return (cur_tick >= match_tick) || (cur_tick < prev_tick);
    2544:	9a02      	ldr	r2, [sp, #8]
    2546:	9b01      	ldr	r3, [sp, #4]
    2548:	429a      	cmp	r2, r3
    254a:	d203      	bcs.n	2554 <_ticker_match_interval_passed+0x20>
    254c:	9a02      	ldr	r2, [sp, #8]
    254e:	9b03      	ldr	r3, [sp, #12]
    2550:	429a      	cmp	r2, r3
    2552:	d201      	bcs.n	2558 <_ticker_match_interval_passed+0x24>
    2554:	2301      	movs	r3, #1
    2556:	e00c      	b.n	2572 <_ticker_match_interval_passed+0x3e>
    2558:	2300      	movs	r3, #0
    255a:	e00a      	b.n	2572 <_ticker_match_interval_passed+0x3e>
    } else {
        return (cur_tick < prev_tick) && (cur_tick >= match_tick);
    255c:	9a02      	ldr	r2, [sp, #8]
    255e:	9b03      	ldr	r3, [sp, #12]
    2560:	429a      	cmp	r2, r3
    2562:	d205      	bcs.n	2570 <_ticker_match_interval_passed+0x3c>
    2564:	9a02      	ldr	r2, [sp, #8]
    2566:	9b01      	ldr	r3, [sp, #4]
    2568:	429a      	cmp	r2, r3
    256a:	d301      	bcc.n	2570 <_ticker_match_interval_passed+0x3c>
    256c:	2301      	movs	r3, #1
    256e:	e000      	b.n	2572 <_ticker_match_interval_passed+0x3e>
    2570:	2300      	movs	r3, #0
    }
}
    2572:	4618      	mov	r0, r3
    2574:	b004      	add	sp, #16
    2576:	4770      	bx	lr

00002578 <schedule_interrupt>:
 * @note If there is no event in the queue then the interrupt is scheduled to
 * in ticker.queue.max_delta. This is necessary to keep track
 * of the timer overflow.
 */
static void schedule_interrupt(const ticker_data_t *const ticker)
{
    2578:	b510      	push	{r4, lr}
    257a:	b08c      	sub	sp, #48	; 0x30
    257c:	9001      	str	r0, [sp, #4]
    ticker_event_queue_t *queue = ticker->queue;
    257e:	9b01      	ldr	r3, [sp, #4]
    2580:	685b      	ldr	r3, [r3, #4]
    2582:	930b      	str	r3, [sp, #44]	; 0x2c
    update_present_time(ticker);
    2584:	9801      	ldr	r0, [sp, #4]
    2586:	f7ff fdfd 	bl	2184 <update_present_time>

    if (ticker->queue->head) {
    258a:	9b01      	ldr	r3, [sp, #4]
    258c:	685b      	ldr	r3, [r3, #4]
    258e:	685b      	ldr	r3, [r3, #4]
    2590:	2b00      	cmp	r3, #0
    2592:	d042      	beq.n	261a <schedule_interrupt+0xa2>
        us_timestamp_t present = ticker->queue->present_time;
    2594:	9b01      	ldr	r3, [sp, #4]
    2596:	685b      	ldr	r3, [r3, #4]
    2598:	e9d3 340c 	ldrd	r3, r4, [r3, #48]	; 0x30
    259c:	e9cd 3408 	strd	r3, r4, [sp, #32]
        us_timestamp_t match_time = ticker->queue->head->timestamp;
    25a0:	9b01      	ldr	r3, [sp, #4]
    25a2:	685b      	ldr	r3, [r3, #4]
    25a4:	685b      	ldr	r3, [r3, #4]
    25a6:	e9d3 3400 	ldrd	r3, r4, [r3]
    25aa:	e9cd 3406 	strd	r3, r4, [sp, #24]

        // if the event at the head of the queue is in the past then schedule
        // it immediately.
        if (match_time <= present) {
    25ae:	e9dd 3406 	ldrd	r3, r4, [sp, #24]
    25b2:	e9dd 1208 	ldrd	r1, r2, [sp, #32]
    25b6:	42a2      	cmp	r2, r4
    25b8:	bf08      	it	eq
    25ba:	4299      	cmpeq	r1, r3
    25bc:	d304      	bcc.n	25c8 <schedule_interrupt+0x50>
            ticker->interface->fire_interrupt();
    25be:	9b01      	ldr	r3, [sp, #4]
    25c0:	681b      	ldr	r3, [r3, #0]
    25c2:	695b      	ldr	r3, [r3, #20]
    25c4:	4798      	blx	r3
            return;
    25c6:	e036      	b.n	2636 <schedule_interrupt+0xbe>
        }

        timestamp_t match_tick = compute_tick(ticker, match_time);
    25c8:	e9dd 2306 	ldrd	r2, r3, [sp, #24]
    25cc:	9801      	ldr	r0, [sp, #4]
    25ce:	f7ff ff21 	bl	2414 <compute_tick>
    25d2:	9005      	str	r0, [sp, #20]
        // The time has been checked to be future, but it could still round
        // to the last tick as a result of us to ticks conversion
        if (match_tick == queue->tick_last_read) {
    25d4:	9b0b      	ldr	r3, [sp, #44]	; 0x2c
    25d6:	6a1a      	ldr	r2, [r3, #32]
    25d8:	9b05      	ldr	r3, [sp, #20]
    25da:	429a      	cmp	r2, r3
    25dc:	d104      	bne.n	25e8 <schedule_interrupt+0x70>
            // Match time has already expired so fire immediately
            ticker->interface->fire_interrupt();
    25de:	9b01      	ldr	r3, [sp, #4]
    25e0:	681b      	ldr	r3, [r3, #0]
    25e2:	695b      	ldr	r3, [r3, #20]
    25e4:	4798      	blx	r3
            return;
    25e6:	e026      	b.n	2636 <schedule_interrupt+0xbe>
        }

        ticker->interface->set_interrupt(match_tick);
    25e8:	9b01      	ldr	r3, [sp, #4]
    25ea:	681b      	ldr	r3, [r3, #0]
    25ec:	691b      	ldr	r3, [r3, #16]
    25ee:	9805      	ldr	r0, [sp, #20]
    25f0:	4798      	blx	r3
        timestamp_t cur_tick = ticker->interface->read();
    25f2:	9b01      	ldr	r3, [sp, #4]
    25f4:	681b      	ldr	r3, [r3, #0]
    25f6:	685b      	ldr	r3, [r3, #4]
    25f8:	4798      	blx	r3
    25fa:	9004      	str	r0, [sp, #16]

        if (_ticker_match_interval_passed(queue->tick_last_read, cur_tick, match_tick)) {
    25fc:	9b0b      	ldr	r3, [sp, #44]	; 0x2c
    25fe:	6a1b      	ldr	r3, [r3, #32]
    2600:	9a05      	ldr	r2, [sp, #20]
    2602:	9904      	ldr	r1, [sp, #16]
    2604:	4618      	mov	r0, r3
    2606:	f7ff ff95 	bl	2534 <_ticker_match_interval_passed>
    260a:	4603      	mov	r3, r0
    260c:	2b00      	cmp	r3, #0
    260e:	d012      	beq.n	2636 <schedule_interrupt+0xbe>
            ticker->interface->fire_interrupt();
    2610:	9b01      	ldr	r3, [sp, #4]
    2612:	681b      	ldr	r3, [r3, #0]
    2614:	695b      	ldr	r3, [r3, #20]
    2616:	4798      	blx	r3
    2618:	e00d      	b.n	2636 <schedule_interrupt+0xbe>
        }
    } else {
        uint32_t match_tick =
            (queue->tick_last_read + queue->max_delta) & queue->bitmask;
    261a:	9b0b      	ldr	r3, [sp, #44]	; 0x2c
    261c:	6a1a      	ldr	r2, [r3, #32]
    261e:	9b0b      	ldr	r3, [sp, #44]	; 0x2c
    2620:	691b      	ldr	r3, [r3, #16]
    2622:	441a      	add	r2, r3
    2624:	9b0b      	ldr	r3, [sp, #44]	; 0x2c
    2626:	68db      	ldr	r3, [r3, #12]
        uint32_t match_tick =
    2628:	4013      	ands	r3, r2
    262a:	9303      	str	r3, [sp, #12]
        ticker->interface->set_interrupt(match_tick);
    262c:	9b01      	ldr	r3, [sp, #4]
    262e:	681b      	ldr	r3, [r3, #0]
    2630:	691b      	ldr	r3, [r3, #16]
    2632:	9803      	ldr	r0, [sp, #12]
    2634:	4798      	blx	r3
    }
}
    2636:	b00c      	add	sp, #48	; 0x30
    2638:	bd10      	pop	{r4, pc}

0000263a <ticker_irq_handler>:
    set_handler(ticker, handler);
    core_util_critical_section_exit();
}

void ticker_irq_handler(const ticker_data_t *const ticker)
{
    263a:	b510      	push	{r4, lr}
    263c:	b084      	sub	sp, #16
    263e:	9001      	str	r0, [sp, #4]
    core_util_critical_section_enter();
    2640:	f000 fab6 	bl	2bb0 <core_util_critical_section_enter>

    ticker->interface->clear_interrupt();
    2644:	9b01      	ldr	r3, [sp, #4]
    2646:	681b      	ldr	r3, [r3, #0]
    2648:	68db      	ldr	r3, [r3, #12]
    264a:	4798      	blx	r3

    /* Go through all the pending TimerEvents */
    while (1) {
        if (ticker->queue->head == NULL) {
    264c:	9b01      	ldr	r3, [sp, #4]
    264e:	685b      	ldr	r3, [r3, #4]
    2650:	685b      	ldr	r3, [r3, #4]
    2652:	2b00      	cmp	r3, #0
    2654:	d027      	beq.n	26a6 <ticker_irq_handler+0x6c>
            break;
        }

        // update the current timestamp used by the queue
        update_present_time(ticker);
    2656:	9801      	ldr	r0, [sp, #4]
    2658:	f7ff fd94 	bl	2184 <update_present_time>

        if (ticker->queue->head->timestamp <= ticker->queue->present_time) {
    265c:	9b01      	ldr	r3, [sp, #4]
    265e:	685b      	ldr	r3, [r3, #4]
    2660:	685b      	ldr	r3, [r3, #4]
    2662:	e9d3 3400 	ldrd	r3, r4, [r3]
    2666:	9a01      	ldr	r2, [sp, #4]
    2668:	6852      	ldr	r2, [r2, #4]
    266a:	e9d2 120c 	ldrd	r1, r2, [r2, #48]	; 0x30
    266e:	42a2      	cmp	r2, r4
    2670:	bf08      	it	eq
    2672:	4299      	cmpeq	r1, r3
    2674:	d319      	bcc.n	26aa <ticker_irq_handler+0x70>
            // This event was in the past:
            //      point to the following one and execute its handler
            ticker_event_t *p = ticker->queue->head;
    2676:	9b01      	ldr	r3, [sp, #4]
    2678:	685b      	ldr	r3, [r3, #4]
    267a:	685b      	ldr	r3, [r3, #4]
    267c:	9303      	str	r3, [sp, #12]
            ticker->queue->head = ticker->queue->head->next;
    267e:	9b01      	ldr	r3, [sp, #4]
    2680:	685b      	ldr	r3, [r3, #4]
    2682:	9a01      	ldr	r2, [sp, #4]
    2684:	6852      	ldr	r2, [r2, #4]
    2686:	6852      	ldr	r2, [r2, #4]
    2688:	68d2      	ldr	r2, [r2, #12]
    268a:	605a      	str	r2, [r3, #4]
            if (ticker->queue->event_handler != NULL) {
    268c:	9b01      	ldr	r3, [sp, #4]
    268e:	685b      	ldr	r3, [r3, #4]
    2690:	681b      	ldr	r3, [r3, #0]
    2692:	2b00      	cmp	r3, #0
    2694:	d0da      	beq.n	264c <ticker_irq_handler+0x12>
                (*ticker->queue->event_handler)(p->id); // NOTE: the handler can set new events
    2696:	9b01      	ldr	r3, [sp, #4]
    2698:	685b      	ldr	r3, [r3, #4]
    269a:	681b      	ldr	r3, [r3, #0]
    269c:	9a03      	ldr	r2, [sp, #12]
    269e:	6892      	ldr	r2, [r2, #8]
    26a0:	4610      	mov	r0, r2
    26a2:	4798      	blx	r3
        if (ticker->queue->head == NULL) {
    26a4:	e7d2      	b.n	264c <ticker_irq_handler+0x12>
            break;
    26a6:	bf00      	nop
    26a8:	e000      	b.n	26ac <ticker_irq_handler+0x72>
            }
            /* Note: We continue back to examining the head because calling the
             * event handler may have altered the chain of pending events. */
        } else {
            break;
    26aa:	bf00      	nop
        }
    }

    schedule_interrupt(ticker);
    26ac:	9801      	ldr	r0, [sp, #4]
    26ae:	f7ff ff63 	bl	2578 <schedule_interrupt>

    core_util_critical_section_exit();
    26b2:	f000 fa97 	bl	2be4 <core_util_critical_section_exit>
}
    26b6:	bf00      	nop
    26b8:	b004      	add	sp, #16
    26ba:	bd10      	pop	{r4, pc}

000026bc <ticker_read>:

    core_util_critical_section_exit();
}

timestamp_t ticker_read(const ticker_data_t *const ticker)
{
    26bc:	b510      	push	{r4, lr}
    26be:	b082      	sub	sp, #8
    26c0:	9001      	str	r0, [sp, #4]
    return ticker_read_us(ticker);
    26c2:	9801      	ldr	r0, [sp, #4]
    26c4:	f000 f805 	bl	26d2 <ticker_read_us>
    26c8:	4603      	mov	r3, r0
    26ca:	460c      	mov	r4, r1
}
    26cc:	4618      	mov	r0, r3
    26ce:	b002      	add	sp, #8
    26d0:	bd10      	pop	{r4, pc}

000026d2 <ticker_read_us>:

us_timestamp_t ticker_read_us(const ticker_data_t *const ticker)
{
    26d2:	b510      	push	{r4, lr}
    26d4:	b082      	sub	sp, #8
    26d6:	9001      	str	r0, [sp, #4]
    initialize(ticker);
    26d8:	9801      	ldr	r0, [sp, #4]
    26da:	f7ff fc59 	bl	1f90 <initialize>

    core_util_critical_section_enter();
    26de:	f000 fa67 	bl	2bb0 <core_util_critical_section_enter>
    update_present_time(ticker);
    26e2:	9801      	ldr	r0, [sp, #4]
    26e4:	f7ff fd4e 	bl	2184 <update_present_time>
    core_util_critical_section_exit();
    26e8:	f000 fa7c 	bl	2be4 <core_util_critical_section_exit>

    return ticker->queue->present_time;
    26ec:	9b01      	ldr	r3, [sp, #4]
    26ee:	685b      	ldr	r3, [r3, #4]
    26f0:	e9d3 340c 	ldrd	r3, r4, [r3, #48]	; 0x30
}
    26f4:	4618      	mov	r0, r3
    26f6:	4621      	mov	r1, r4
    26f8:	b002      	add	sp, #8
    26fa:	bd10      	pop	{r4, pc}

000026fc <get_us_ticker_data>:
    .queue = &events
};

const ticker_data_t *get_us_ticker_data(void)
{
    return &us_data;
    26fc:	4b01      	ldr	r3, [pc, #4]	; (2704 <get_us_ticker_data+0x8>)
}
    26fe:	4618      	mov	r0, r3
    2700:	4770      	bx	lr
    2702:	bf00      	nop
    2704:	00012524 	.word	0x00012524

00002708 <us_ticker_irq_handler>:

    return prev_irq_handler;
}

void us_ticker_irq_handler(void)
{
    2708:	b508      	push	{r3, lr}
    if (irq_handler) {
    270a:	4b05      	ldr	r3, [pc, #20]	; (2720 <us_ticker_irq_handler+0x18>)
    270c:	681b      	ldr	r3, [r3, #0]
    270e:	2b00      	cmp	r3, #0
    2710:	d003      	beq.n	271a <us_ticker_irq_handler+0x12>
        irq_handler(&us_data);
    2712:	4b03      	ldr	r3, [pc, #12]	; (2720 <us_ticker_irq_handler+0x18>)
    2714:	681b      	ldr	r3, [r3, #0]
    2716:	4803      	ldr	r0, [pc, #12]	; (2724 <us_ticker_irq_handler+0x1c>)
    2718:	4798      	blx	r3
    }
}
    271a:	bf00      	nop
    271c:	bd08      	pop	{r3, pc}
    271e:	bf00      	nop
    2720:	20000004 	.word	0x20000004
    2724:	00012524 	.word	0x00012524

00002728 <_ZN4mbed10FileHandle4syncEv>:
    virtual int sync()
    2728:	b082      	sub	sp, #8
    272a:	9001      	str	r0, [sp, #4]
        return 0;
    272c:	2300      	movs	r3, #0
    }
    272e:	4618      	mov	r0, r3
    2730:	b002      	add	sp, #8
    2732:	4770      	bx	lr

00002734 <_ZN4mbed10FileHandle6isattyEv>:
    virtual int isatty()
    2734:	b082      	sub	sp, #8
    2736:	9001      	str	r0, [sp, #4]
        return false;
    2738:	2300      	movs	r3, #0
    }
    273a:	4618      	mov	r0, r3
    273c:	b002      	add	sp, #8
    273e:	4770      	bx	lr

00002740 <_ZN4mbed10FileHandle4sizeEv>:
#include "platform/mbed_critical.h"

namespace mbed {

off_t FileHandle::size()
{
    2740:	b500      	push	{lr}
    2742:	b085      	sub	sp, #20
    2744:	9001      	str	r0, [sp, #4]
    /* remember our current position */
    off_t off = seek(0, SEEK_CUR);
    2746:	9b01      	ldr	r3, [sp, #4]
    2748:	681b      	ldr	r3, [r3, #0]
    274a:	3310      	adds	r3, #16
    274c:	681b      	ldr	r3, [r3, #0]
    274e:	2201      	movs	r2, #1
    2750:	2100      	movs	r1, #0
    2752:	9801      	ldr	r0, [sp, #4]
    2754:	4798      	blx	r3
    2756:	9003      	str	r0, [sp, #12]
    if (off < 0) {
    2758:	9b03      	ldr	r3, [sp, #12]
    275a:	2b00      	cmp	r3, #0
    275c:	da01      	bge.n	2762 <_ZN4mbed10FileHandle4sizeEv+0x22>
        return off;
    275e:	9b03      	ldr	r3, [sp, #12]
    2760:	e011      	b.n	2786 <_ZN4mbed10FileHandle4sizeEv+0x46>
    }
    /* seek to the end to get the file length */
    off_t size = seek(0, SEEK_END);
    2762:	9b01      	ldr	r3, [sp, #4]
    2764:	681b      	ldr	r3, [r3, #0]
    2766:	3310      	adds	r3, #16
    2768:	681b      	ldr	r3, [r3, #0]
    276a:	2202      	movs	r2, #2
    276c:	2100      	movs	r1, #0
    276e:	9801      	ldr	r0, [sp, #4]
    2770:	4798      	blx	r3
    2772:	9002      	str	r0, [sp, #8]
    /* return to our old position */
    seek(off, SEEK_SET);
    2774:	9b01      	ldr	r3, [sp, #4]
    2776:	681b      	ldr	r3, [r3, #0]
    2778:	3310      	adds	r3, #16
    277a:	681b      	ldr	r3, [r3, #0]
    277c:	2200      	movs	r2, #0
    277e:	9903      	ldr	r1, [sp, #12]
    2780:	9801      	ldr	r0, [sp, #4]
    2782:	4798      	blx	r3
    return size;
    2784:	9b02      	ldr	r3, [sp, #8]
}
    2786:	4618      	mov	r0, r3
    2788:	b005      	add	sp, #20
    278a:	f85d fb04 	ldr.w	pc, [sp], #4
	...

00002790 <mbed_stats_heap_get>:
static SingletonPtr<PlatformMutex> malloc_stats_mutex;
static mbed_stats_heap_t heap_stats = {0, 0, 0, 0, 0};
#endif

void mbed_stats_heap_get(mbed_stats_heap_t *stats)
{
    2790:	b500      	push	{lr}
    2792:	b083      	sub	sp, #12
    2794:	9001      	str	r0, [sp, #4]
#ifdef MBED_HEAP_STATS_ENABLED
    extern uint32_t mbed_heap_size;
    heap_stats.reserved_size = mbed_heap_size;
    2796:	4b0e      	ldr	r3, [pc, #56]	; (27d0 <mbed_stats_heap_get+0x40>)
    2798:	681b      	ldr	r3, [r3, #0]
    279a:	4a0e      	ldr	r2, [pc, #56]	; (27d4 <mbed_stats_heap_get+0x44>)
    279c:	60d3      	str	r3, [r2, #12]

    malloc_stats_mutex->lock();
    279e:	480e      	ldr	r0, [pc, #56]	; (27d8 <mbed_stats_heap_get+0x48>)
    27a0:	f7ff f8cc 	bl	193c <_ZN12SingletonPtrIN4rtos5MutexEEptEv>
    27a4:	4603      	mov	r3, r0
    27a6:	f04f 31ff 	mov.w	r1, #4294967295	; 0xffffffff
    27aa:	4618      	mov	r0, r3
    27ac:	f001 fb6e 	bl	3e8c <_ZN4rtos5Mutex4lockEm>
    memcpy(stats, &heap_stats, sizeof(mbed_stats_heap_t));
    27b0:	2218      	movs	r2, #24
    27b2:	4908      	ldr	r1, [pc, #32]	; (27d4 <mbed_stats_heap_get+0x44>)
    27b4:	9801      	ldr	r0, [sp, #4]
    27b6:	f7fe f8b3 	bl	920 <memcpy>
    malloc_stats_mutex->unlock();
    27ba:	4807      	ldr	r0, [pc, #28]	; (27d8 <mbed_stats_heap_get+0x48>)
    27bc:	f7ff f8be 	bl	193c <_ZN12SingletonPtrIN4rtos5MutexEEptEv>
    27c0:	4603      	mov	r3, r0
    27c2:	4618      	mov	r0, r3
    27c4:	f001 fb7a 	bl	3ebc <_ZN4rtos5Mutex6unlockEv>
#else
    memset(stats, 0, sizeof(mbed_stats_heap_t));
#endif
}
    27c8:	bf00      	nop
    27ca:	b003      	add	sp, #12
    27cc:	f85d fb04 	ldr.w	pc, [sp], #4
    27d0:	20000d9c 	.word	0x20000d9c
    27d4:	20000cd8 	.word	0x20000cd8
    27d8:	20000cb0 	.word	0x20000cb0

000027dc <__wrap__malloc_r>:

// TODO: memory tracing doesn't work with uVisor enabled.
#if !defined(FEATURE_UVISOR)

extern "C" void *__wrap__malloc_r(struct _reent *r, size_t size)
{
    27dc:	b500      	push	{lr}
    27de:	b083      	sub	sp, #12
    27e0:	4673      	mov	r3, lr
    27e2:	9001      	str	r0, [sp, #4]
    27e4:	9100      	str	r1, [sp, #0]
    return malloc_wrapper(r, size, MBED_CALLER_ADDR());
    27e6:	461a      	mov	r2, r3
    27e8:	9900      	ldr	r1, [sp, #0]
    27ea:	9801      	ldr	r0, [sp, #4]
    27ec:	f000 f806 	bl	27fc <malloc_wrapper>
    27f0:	4603      	mov	r3, r0
}
    27f2:	4618      	mov	r0, r3
    27f4:	b003      	add	sp, #12
    27f6:	f85d fb04 	ldr.w	pc, [sp], #4
	...

000027fc <malloc_wrapper>:

extern "C" void *malloc_wrapper(struct _reent *r, size_t size, void *caller)
{
    27fc:	b500      	push	{lr}
    27fe:	b087      	sub	sp, #28
    2800:	9003      	str	r0, [sp, #12]
    2802:	9102      	str	r1, [sp, #8]
    2804:	9201      	str	r2, [sp, #4]
    void *ptr = NULL;
    2806:	2300      	movs	r3, #0
    2808:	9305      	str	r3, [sp, #20]
#ifdef MBED_MEM_TRACING_ENABLED
    mbed_mem_trace_lock();
    280a:	f000 fbc1 	bl	2f90 <mbed_mem_trace_lock>
#endif
#ifdef MBED_HEAP_STATS_ENABLED
    malloc_stats_mutex->lock();
    280e:	4826      	ldr	r0, [pc, #152]	; (28a8 <malloc_wrapper+0xac>)
    2810:	f7ff f894 	bl	193c <_ZN12SingletonPtrIN4rtos5MutexEEptEv>
    2814:	4603      	mov	r3, r0
    2816:	f04f 31ff 	mov.w	r1, #4294967295	; 0xffffffff
    281a:	4618      	mov	r0, r3
    281c:	f001 fb36 	bl	3e8c <_ZN4rtos5Mutex4lockEm>
    alloc_info_t *alloc_info = (alloc_info_t *)__real__malloc_r(r, size + sizeof(alloc_info_t));
    2820:	9b02      	ldr	r3, [sp, #8]
    2822:	3308      	adds	r3, #8
    2824:	4619      	mov	r1, r3
    2826:	9803      	ldr	r0, [sp, #12]
    2828:	f008 fb12 	bl	ae50 <_malloc_r>
    282c:	9004      	str	r0, [sp, #16]
    if (alloc_info != NULL) {
    282e:	9b04      	ldr	r3, [sp, #16]
    2830:	2b00      	cmp	r3, #0
    2832:	d021      	beq.n	2878 <malloc_wrapper+0x7c>
        alloc_info->size = size;
    2834:	9b04      	ldr	r3, [sp, #16]
    2836:	9a02      	ldr	r2, [sp, #8]
    2838:	601a      	str	r2, [r3, #0]
        ptr = (void *)(alloc_info + 1);
    283a:	9b04      	ldr	r3, [sp, #16]
    283c:	3308      	adds	r3, #8
    283e:	9305      	str	r3, [sp, #20]
        heap_stats.current_size += size;
    2840:	4b1a      	ldr	r3, [pc, #104]	; (28ac <malloc_wrapper+0xb0>)
    2842:	681a      	ldr	r2, [r3, #0]
    2844:	9b02      	ldr	r3, [sp, #8]
    2846:	4413      	add	r3, r2
    2848:	4a18      	ldr	r2, [pc, #96]	; (28ac <malloc_wrapper+0xb0>)
    284a:	6013      	str	r3, [r2, #0]
        heap_stats.total_size += size;
    284c:	4b17      	ldr	r3, [pc, #92]	; (28ac <malloc_wrapper+0xb0>)
    284e:	689a      	ldr	r2, [r3, #8]
    2850:	9b02      	ldr	r3, [sp, #8]
    2852:	4413      	add	r3, r2
    2854:	4a15      	ldr	r2, [pc, #84]	; (28ac <malloc_wrapper+0xb0>)
    2856:	6093      	str	r3, [r2, #8]
        heap_stats.alloc_cnt += 1;
    2858:	4b14      	ldr	r3, [pc, #80]	; (28ac <malloc_wrapper+0xb0>)
    285a:	691b      	ldr	r3, [r3, #16]
    285c:	3301      	adds	r3, #1
    285e:	4a13      	ldr	r2, [pc, #76]	; (28ac <malloc_wrapper+0xb0>)
    2860:	6113      	str	r3, [r2, #16]
        if (heap_stats.current_size > heap_stats.max_size) {
    2862:	4b12      	ldr	r3, [pc, #72]	; (28ac <malloc_wrapper+0xb0>)
    2864:	681a      	ldr	r2, [r3, #0]
    2866:	4b11      	ldr	r3, [pc, #68]	; (28ac <malloc_wrapper+0xb0>)
    2868:	685b      	ldr	r3, [r3, #4]
    286a:	429a      	cmp	r2, r3
    286c:	d909      	bls.n	2882 <malloc_wrapper+0x86>
            heap_stats.max_size = heap_stats.current_size;
    286e:	4b0f      	ldr	r3, [pc, #60]	; (28ac <malloc_wrapper+0xb0>)
    2870:	681b      	ldr	r3, [r3, #0]
    2872:	4a0e      	ldr	r2, [pc, #56]	; (28ac <malloc_wrapper+0xb0>)
    2874:	6053      	str	r3, [r2, #4]
    2876:	e004      	b.n	2882 <malloc_wrapper+0x86>
        }
    } else {
        heap_stats.alloc_fail_cnt += 1;
    2878:	4b0c      	ldr	r3, [pc, #48]	; (28ac <malloc_wrapper+0xb0>)
    287a:	695b      	ldr	r3, [r3, #20]
    287c:	3301      	adds	r3, #1
    287e:	4a0b      	ldr	r2, [pc, #44]	; (28ac <malloc_wrapper+0xb0>)
    2880:	6153      	str	r3, [r2, #20]
    }
    malloc_stats_mutex->unlock();
    2882:	4809      	ldr	r0, [pc, #36]	; (28a8 <malloc_wrapper+0xac>)
    2884:	f7ff f85a 	bl	193c <_ZN12SingletonPtrIN4rtos5MutexEEptEv>
    2888:	4603      	mov	r3, r0
    288a:	4618      	mov	r0, r3
    288c:	f001 fb16 	bl	3ebc <_ZN4rtos5Mutex6unlockEv>
#else // #ifdef MBED_HEAP_STATS_ENABLED
    ptr = __real__malloc_r(r, size);
#endif // #ifdef MBED_HEAP_STATS_ENABLED
#ifdef MBED_MEM_TRACING_ENABLED
    mbed_mem_trace_malloc(ptr, size, caller);
    2890:	9a01      	ldr	r2, [sp, #4]
    2892:	9902      	ldr	r1, [sp, #8]
    2894:	9805      	ldr	r0, [sp, #20]
    2896:	f000 fba5 	bl	2fe4 <mbed_mem_trace_malloc>
    mbed_mem_trace_unlock();
    289a:	f000 fb8f 	bl	2fbc <mbed_mem_trace_unlock>
#endif // #ifdef MBED_MEM_TRACING_ENABLED
    return ptr;
    289e:	9b05      	ldr	r3, [sp, #20]
}
    28a0:	4618      	mov	r0, r3
    28a2:	b007      	add	sp, #28
    28a4:	f85d fb04 	ldr.w	pc, [sp], #4
    28a8:	20000cb0 	.word	0x20000cb0
    28ac:	20000cd8 	.word	0x20000cd8

000028b0 <__wrap__realloc_r>:

extern "C" void *__wrap__realloc_r(struct _reent *r, void *ptr, size_t size)
{
    28b0:	b510      	push	{r4, lr}
    28b2:	b088      	sub	sp, #32
    28b4:	4674      	mov	r4, lr
    28b6:	9003      	str	r0, [sp, #12]
    28b8:	9102      	str	r1, [sp, #8]
    28ba:	9201      	str	r2, [sp, #4]
    void *new_ptr = NULL;
    28bc:	2300      	movs	r3, #0
    28be:	9307      	str	r3, [sp, #28]
#ifdef MBED_MEM_TRACING_ENABLED
    mbed_mem_trace_lock();
    28c0:	f000 fb66 	bl	2f90 <mbed_mem_trace_lock>
    // resize memory directly (returns ptr + 0).

    // Note - no lock needed since malloc and free are thread safe

    // Get old size
    uint32_t old_size = 0;
    28c4:	2300      	movs	r3, #0
    28c6:	9306      	str	r3, [sp, #24]
    if (ptr != NULL) {
    28c8:	9b02      	ldr	r3, [sp, #8]
    28ca:	2b00      	cmp	r3, #0
    28cc:	d005      	beq.n	28da <__wrap__realloc_r+0x2a>
        alloc_info_t *alloc_info = ((alloc_info_t *)ptr) - 1;
    28ce:	9b02      	ldr	r3, [sp, #8]
    28d0:	3b08      	subs	r3, #8
    28d2:	9305      	str	r3, [sp, #20]
        old_size = alloc_info->size;
    28d4:	9b05      	ldr	r3, [sp, #20]
    28d6:	681b      	ldr	r3, [r3, #0]
    28d8:	9306      	str	r3, [sp, #24]
    }

    // Allocate space
    if (size != 0) {
    28da:	9b01      	ldr	r3, [sp, #4]
    28dc:	2b00      	cmp	r3, #0
    28de:	d003      	beq.n	28e8 <__wrap__realloc_r+0x38>
        new_ptr = malloc(size);
    28e0:	9801      	ldr	r0, [sp, #4]
    28e2:	f008 faa5 	bl	ae30 <malloc>
    28e6:	9007      	str	r0, [sp, #28]
    }

    // If the new buffer has been allocated copy the data to it
    // and free the old buffer
    if (new_ptr != NULL) {
    28e8:	9b07      	ldr	r3, [sp, #28]
    28ea:	2b00      	cmp	r3, #0
    28ec:	d00f      	beq.n	290e <__wrap__realloc_r+0x5e>
        uint32_t copy_size = (old_size < size) ? old_size : size;
    28ee:	9a06      	ldr	r2, [sp, #24]
    28f0:	9b01      	ldr	r3, [sp, #4]
    28f2:	429a      	cmp	r2, r3
    28f4:	d201      	bcs.n	28fa <__wrap__realloc_r+0x4a>
    28f6:	9b06      	ldr	r3, [sp, #24]
    28f8:	e000      	b.n	28fc <__wrap__realloc_r+0x4c>
    28fa:	9b01      	ldr	r3, [sp, #4]
    28fc:	9304      	str	r3, [sp, #16]
        memcpy(new_ptr, (void *)ptr, copy_size);
    28fe:	9a04      	ldr	r2, [sp, #16]
    2900:	9902      	ldr	r1, [sp, #8]
    2902:	9807      	ldr	r0, [sp, #28]
    2904:	f7fe f80c 	bl	920 <memcpy>
        free(ptr);
    2908:	9802      	ldr	r0, [sp, #8]
    290a:	f008 fa99 	bl	ae40 <free>
    }
#else // #ifdef MBED_HEAP_STATS_ENABLED
    new_ptr = __real__realloc_r(r, ptr, size);
#endif // #ifdef MBED_HEAP_STATS_ENABLED
#ifdef MBED_MEM_TRACING_ENABLED
    mbed_mem_trace_realloc(new_ptr, ptr, size, MBED_CALLER_ADDR());
    290e:	4623      	mov	r3, r4
    2910:	9a01      	ldr	r2, [sp, #4]
    2912:	9902      	ldr	r1, [sp, #8]
    2914:	9807      	ldr	r0, [sp, #28]
    2916:	f000 fb81 	bl	301c <mbed_mem_trace_realloc>
    mbed_mem_trace_unlock();
    291a:	f000 fb4f 	bl	2fbc <mbed_mem_trace_unlock>
#endif // #ifdef MBED_MEM_TRACING_ENABLED
    return new_ptr;
    291e:	9b07      	ldr	r3, [sp, #28]
}
    2920:	4618      	mov	r0, r3
    2922:	b008      	add	sp, #32
    2924:	bd10      	pop	{r4, pc}

00002926 <__wrap__free_r>:

extern "C" void __wrap__free_r(struct _reent *r, void *ptr)
{
    2926:	b500      	push	{lr}
    2928:	b083      	sub	sp, #12
    292a:	4673      	mov	r3, lr
    292c:	9001      	str	r0, [sp, #4]
    292e:	9100      	str	r1, [sp, #0]
    free_wrapper(r, ptr, MBED_CALLER_ADDR());
    2930:	461a      	mov	r2, r3
    2932:	9900      	ldr	r1, [sp, #0]
    2934:	9801      	ldr	r0, [sp, #4]
    2936:	f000 f805 	bl	2944 <free_wrapper>
}
    293a:	bf00      	nop
    293c:	b003      	add	sp, #12
    293e:	f85d fb04 	ldr.w	pc, [sp], #4
	...

00002944 <free_wrapper>:

extern "C" void free_wrapper(struct _reent *r, void *ptr, void *caller)
{
    2944:	b500      	push	{lr}
    2946:	b087      	sub	sp, #28
    2948:	9003      	str	r0, [sp, #12]
    294a:	9102      	str	r1, [sp, #8]
    294c:	9201      	str	r2, [sp, #4]
#ifdef MBED_MEM_TRACING_ENABLED
    mbed_mem_trace_lock();
    294e:	f000 fb1f 	bl	2f90 <mbed_mem_trace_lock>
#endif
#ifdef MBED_HEAP_STATS_ENABLED
    malloc_stats_mutex->lock();
    2952:	4819      	ldr	r0, [pc, #100]	; (29b8 <free_wrapper+0x74>)
    2954:	f7fe fff2 	bl	193c <_ZN12SingletonPtrIN4rtos5MutexEEptEv>
    2958:	4603      	mov	r3, r0
    295a:	f04f 31ff 	mov.w	r1, #4294967295	; 0xffffffff
    295e:	4618      	mov	r0, r3
    2960:	f001 fa94 	bl	3e8c <_ZN4rtos5Mutex4lockEm>
    alloc_info_t *alloc_info = NULL;
    2964:	2300      	movs	r3, #0
    2966:	9305      	str	r3, [sp, #20]
    if (ptr != NULL) {
    2968:	9b02      	ldr	r3, [sp, #8]
    296a:	2b00      	cmp	r3, #0
    296c:	d00e      	beq.n	298c <free_wrapper+0x48>
        alloc_info = ((alloc_info_t *)ptr) - 1;
    296e:	9b02      	ldr	r3, [sp, #8]
    2970:	3b08      	subs	r3, #8
    2972:	9305      	str	r3, [sp, #20]
        heap_stats.current_size -= alloc_info->size;
    2974:	4b11      	ldr	r3, [pc, #68]	; (29bc <free_wrapper+0x78>)
    2976:	681a      	ldr	r2, [r3, #0]
    2978:	9b05      	ldr	r3, [sp, #20]
    297a:	681b      	ldr	r3, [r3, #0]
    297c:	1ad3      	subs	r3, r2, r3
    297e:	4a0f      	ldr	r2, [pc, #60]	; (29bc <free_wrapper+0x78>)
    2980:	6013      	str	r3, [r2, #0]
        heap_stats.alloc_cnt -= 1;
    2982:	4b0e      	ldr	r3, [pc, #56]	; (29bc <free_wrapper+0x78>)
    2984:	691b      	ldr	r3, [r3, #16]
    2986:	3b01      	subs	r3, #1
    2988:	4a0c      	ldr	r2, [pc, #48]	; (29bc <free_wrapper+0x78>)
    298a:	6113      	str	r3, [r2, #16]
    }
    __real__free_r(r, (void *)alloc_info);
    298c:	9905      	ldr	r1, [sp, #20]
    298e:	9803      	ldr	r0, [sp, #12]
    2990:	f007 fefc 	bl	a78c <_free_r>
    malloc_stats_mutex->unlock();
    2994:	4808      	ldr	r0, [pc, #32]	; (29b8 <free_wrapper+0x74>)
    2996:	f7fe ffd1 	bl	193c <_ZN12SingletonPtrIN4rtos5MutexEEptEv>
    299a:	4603      	mov	r3, r0
    299c:	4618      	mov	r0, r3
    299e:	f001 fa8d 	bl	3ebc <_ZN4rtos5Mutex6unlockEv>
#else // #ifdef MBED_HEAP_STATS_ENABLED
    __real__free_r(r, ptr);
#endif // #ifdef MBED_HEAP_STATS_ENABLED
#ifdef MBED_MEM_TRACING_ENABLED
    mbed_mem_trace_free(ptr, caller);
    29a2:	9901      	ldr	r1, [sp, #4]
    29a4:	9802      	ldr	r0, [sp, #8]
    29a6:	f000 fb79 	bl	309c <mbed_mem_trace_free>
    mbed_mem_trace_unlock();
    29aa:	f000 fb07 	bl	2fbc <mbed_mem_trace_unlock>
#endif // #ifdef MBED_MEM_TRACING_ENABLED
}
    29ae:	bf00      	nop
    29b0:	b007      	add	sp, #28
    29b2:	f85d fb04 	ldr.w	pc, [sp], #4
    29b6:	bf00      	nop
    29b8:	20000cb0 	.word	0x20000cb0
    29bc:	20000cd8 	.word	0x20000cd8

000029c0 <__wrap__calloc_r>:

extern "C" void *__wrap__calloc_r(struct _reent *r, size_t nmemb, size_t size)
{
    29c0:	b510      	push	{r4, lr}
    29c2:	b086      	sub	sp, #24
    29c4:	4674      	mov	r4, lr
    29c6:	9003      	str	r0, [sp, #12]
    29c8:	9102      	str	r1, [sp, #8]
    29ca:	9201      	str	r2, [sp, #4]
    void *ptr = NULL;
    29cc:	2300      	movs	r3, #0
    29ce:	9305      	str	r3, [sp, #20]
#ifdef MBED_MEM_TRACING_ENABLED
    mbed_mem_trace_lock();
    29d0:	f000 fade 	bl	2f90 <mbed_mem_trace_lock>
#endif
#ifdef MBED_HEAP_STATS_ENABLED
    // Note - no lock needed since malloc is thread safe

    ptr = malloc(nmemb * size);
    29d4:	9b02      	ldr	r3, [sp, #8]
    29d6:	9a01      	ldr	r2, [sp, #4]
    29d8:	fb02 f303 	mul.w	r3, r2, r3
    29dc:	4618      	mov	r0, r3
    29de:	f008 fa27 	bl	ae30 <malloc>
    29e2:	9005      	str	r0, [sp, #20]
    if (ptr != NULL) {
    29e4:	9b05      	ldr	r3, [sp, #20]
    29e6:	2b00      	cmp	r3, #0
    29e8:	d008      	beq.n	29fc <__wrap__calloc_r+0x3c>
        memset(ptr, 0, nmemb * size);
    29ea:	9b02      	ldr	r3, [sp, #8]
    29ec:	9a01      	ldr	r2, [sp, #4]
    29ee:	fb02 f303 	mul.w	r3, r2, r3
    29f2:	461a      	mov	r2, r3
    29f4:	2100      	movs	r1, #0
    29f6:	9805      	ldr	r0, [sp, #20]
    29f8:	f008 fd54 	bl	b4a4 <memset>
    }
#else // #ifdef MBED_HEAP_STATS_ENABLED
    ptr = __real__calloc_r(r, nmemb, size);
#endif // #ifdef MBED_HEAP_STATS_ENABLED
#ifdef MBED_MEM_TRACING_ENABLED
    mbed_mem_trace_calloc(ptr, nmemb, size, MBED_CALLER_ADDR());
    29fc:	4623      	mov	r3, r4
    29fe:	9a01      	ldr	r2, [sp, #4]
    2a00:	9902      	ldr	r1, [sp, #8]
    2a02:	9805      	ldr	r0, [sp, #20]
    2a04:	f000 fb2a 	bl	305c <mbed_mem_trace_calloc>
    mbed_mem_trace_unlock();
    2a08:	f000 fad8 	bl	2fbc <mbed_mem_trace_unlock>
#endif // #ifdef MBED_MEM_TRACING_ENABLED
    return ptr;
    2a0c:	9b05      	ldr	r3, [sp, #20]
}
    2a0e:	4618      	mov	r0, r3
    2a10:	b006      	add	sp, #24
    2a12:	bd10      	pop	{r4, pc}

00002a14 <mbed_assert_internal>:

#include "platform/mbed_interface.h"
#include "platform/mbed_critical.h"

void mbed_assert_internal(const char *expr, const char *file, int line)
{
    2a14:	b500      	push	{lr}
    2a16:	b085      	sub	sp, #20
    2a18:	9003      	str	r0, [sp, #12]
    2a1a:	9102      	str	r1, [sp, #8]
    2a1c:	9201      	str	r2, [sp, #4]
    core_util_critical_section_enter();
    2a1e:	f000 f8c7 	bl	2bb0 <core_util_critical_section_enter>
    mbed_error_printf("mbed assertation failed: %s, file: %s, line %d \n", expr, file, line);
    2a22:	9b01      	ldr	r3, [sp, #4]
    2a24:	9a02      	ldr	r2, [sp, #8]
    2a26:	9903      	ldr	r1, [sp, #12]
    2a28:	4804      	ldr	r0, [pc, #16]	; (2a3c <mbed_assert_internal+0x28>)
    2a2a:	f000 f848 	bl	2abe <mbed_error_printf>
    mbed_die();
    2a2e:	f000 f807 	bl	2a40 <mbed_die>
}
    2a32:	bf00      	nop
    2a34:	b005      	add	sp, #20
    2a36:	f85d fb04 	ldr.w	pc, [sp], #4
    2a3a:	bf00      	nop
    2a3c:	00010ba0 	.word	0x00010ba0

00002a40 <mbed_die>:
extern int stdio_uart_inited;
extern serial_t stdio_uart;
#endif

WEAK void mbed_die(void)
{
    2a40:	b500      	push	{lr}
    2a42:	b085      	sub	sp, #20
#if !defined (NRF51_H) && !defined(TARGET_EFM32)
    core_util_critical_section_enter();
    2a44:	f000 f8b4 	bl	2bb0 <core_util_critical_section_enter>
#endif
    gpio_t led_err;
    gpio_init_out(&led_err, LED1);
    2a48:	ab01      	add	r3, sp, #4
    2a4a:	f241 0116 	movw	r1, #4118	; 0x1016
    2a4e:	4618      	mov	r0, r3
    2a50:	f7ff f952 	bl	1cf8 <gpio_init_out>

    while (1) {
        for (int i = 0; i < 4; ++i) {
    2a54:	2300      	movs	r3, #0
    2a56:	9303      	str	r3, [sp, #12]
    2a58:	e012      	b.n	2a80 <mbed_die+0x40>
            gpio_write(&led_err, 1);
    2a5a:	ab01      	add	r3, sp, #4
    2a5c:	2101      	movs	r1, #1
    2a5e:	4618      	mov	r0, r3
    2a60:	f007 fb66 	bl	a130 <gpio_write>
            wait_ms(150);
    2a64:	2096      	movs	r0, #150	; 0x96
    2a66:	f001 f979 	bl	3d5c <wait_ms>
            gpio_write(&led_err, 0);
    2a6a:	ab01      	add	r3, sp, #4
    2a6c:	2100      	movs	r1, #0
    2a6e:	4618      	mov	r0, r3
    2a70:	f007 fb5e 	bl	a130 <gpio_write>
            wait_ms(150);
    2a74:	2096      	movs	r0, #150	; 0x96
    2a76:	f001 f971 	bl	3d5c <wait_ms>
        for (int i = 0; i < 4; ++i) {
    2a7a:	9b03      	ldr	r3, [sp, #12]
    2a7c:	3301      	adds	r3, #1
    2a7e:	9303      	str	r3, [sp, #12]
    2a80:	9b03      	ldr	r3, [sp, #12]
    2a82:	2b03      	cmp	r3, #3
    2a84:	dde9      	ble.n	2a5a <mbed_die+0x1a>
        }

        for (int i = 0; i < 4; ++i) {
    2a86:	2300      	movs	r3, #0
    2a88:	9302      	str	r3, [sp, #8]
    2a8a:	e014      	b.n	2ab6 <mbed_die+0x76>
            gpio_write(&led_err, 1);
    2a8c:	ab01      	add	r3, sp, #4
    2a8e:	2101      	movs	r1, #1
    2a90:	4618      	mov	r0, r3
    2a92:	f007 fb4d 	bl	a130 <gpio_write>
            wait_ms(400);
    2a96:	f44f 70c8 	mov.w	r0, #400	; 0x190
    2a9a:	f001 f95f 	bl	3d5c <wait_ms>
            gpio_write(&led_err, 0);
    2a9e:	ab01      	add	r3, sp, #4
    2aa0:	2100      	movs	r1, #0
    2aa2:	4618      	mov	r0, r3
    2aa4:	f007 fb44 	bl	a130 <gpio_write>
            wait_ms(400);
    2aa8:	f44f 70c8 	mov.w	r0, #400	; 0x190
    2aac:	f001 f956 	bl	3d5c <wait_ms>
        for (int i = 0; i < 4; ++i) {
    2ab0:	9b02      	ldr	r3, [sp, #8]
    2ab2:	3301      	adds	r3, #1
    2ab4:	9302      	str	r3, [sp, #8]
    2ab6:	9b02      	ldr	r3, [sp, #8]
    2ab8:	2b03      	cmp	r3, #3
    2aba:	dde7      	ble.n	2a8c <mbed_die+0x4c>
        for (int i = 0; i < 4; ++i) {
    2abc:	e7ca      	b.n	2a54 <mbed_die+0x14>

00002abe <mbed_error_printf>:
        }
    }
}

void mbed_error_printf(const char *format, ...)
{
    2abe:	b40f      	push	{r0, r1, r2, r3}
    2ac0:	b500      	push	{lr}
    2ac2:	b083      	sub	sp, #12
    va_list arg;
    va_start(arg, format);
    2ac4:	ab05      	add	r3, sp, #20
    2ac6:	9301      	str	r3, [sp, #4]
    mbed_error_vfprintf(format, arg);
    2ac8:	9901      	ldr	r1, [sp, #4]
    2aca:	9804      	ldr	r0, [sp, #16]
    2acc:	f000 f806 	bl	2adc <mbed_error_vfprintf>
    va_end(arg);
}
    2ad0:	bf00      	nop
    2ad2:	b003      	add	sp, #12
    2ad4:	f85d eb04 	ldr.w	lr, [sp], #4
    2ad8:	b004      	add	sp, #16
    2ada:	4770      	bx	lr

00002adc <mbed_error_vfprintf>:

void mbed_error_vfprintf(const char *format, va_list arg)
{
    2adc:	b500      	push	{lr}
    2ade:	b0a7      	sub	sp, #156	; 0x9c
    2ae0:	9001      	str	r0, [sp, #4]
    2ae2:	9100      	str	r1, [sp, #0]
#if DEVICE_SERIAL
#define ERROR_BUF_SIZE      (128)
    core_util_critical_section_enter();
    2ae4:	f000 f864 	bl	2bb0 <core_util_critical_section_enter>
    char buffer[ERROR_BUF_SIZE];
    int size = vsnprintf(buffer, ERROR_BUF_SIZE, format, arg);
    2ae8:	a803      	add	r0, sp, #12
    2aea:	9b00      	ldr	r3, [sp, #0]
    2aec:	9a01      	ldr	r2, [sp, #4]
    2aee:	2180      	movs	r1, #128	; 0x80
    2af0:	f00c fa00 	bl	eef4 <vsnprintf>
    2af4:	9023      	str	r0, [sp, #140]	; 0x8c
    if (size > 0) {
    2af6:	9b23      	ldr	r3, [sp, #140]	; 0x8c
    2af8:	2b00      	cmp	r3, #0
    2afa:	dd33      	ble.n	2b64 <mbed_error_vfprintf+0x88>
        if (!stdio_uart_inited) {
    2afc:	4b1c      	ldr	r3, [pc, #112]	; (2b70 <mbed_error_vfprintf+0x94>)
    2afe:	681b      	ldr	r3, [r3, #0]
    2b00:	2b00      	cmp	r3, #0
    2b02:	d106      	bne.n	2b12 <mbed_error_vfprintf+0x36>
            serial_init(&stdio_uart, STDIO_UART_TX, STDIO_UART_RX);
    2b04:	f241 0210 	movw	r2, #4112	; 0x1010
    2b08:	f241 0111 	movw	r1, #4113	; 0x1011
    2b0c:	4819      	ldr	r0, [pc, #100]	; (2b74 <mbed_error_vfprintf+0x98>)
    2b0e:	f006 ff35 	bl	997c <serial_init>
        }
#if MBED_CONF_PLATFORM_STDIO_CONVERT_NEWLINES
        char stdio_out_prev = '\0';
    2b12:	2300      	movs	r3, #0
    2b14:	f88d 3097 	strb.w	r3, [sp, #151]	; 0x97
        for (int i = 0; i < size; i++) {
    2b18:	2300      	movs	r3, #0
    2b1a:	9324      	str	r3, [sp, #144]	; 0x90
    2b1c:	e01e      	b.n	2b5c <mbed_error_vfprintf+0x80>
            if (buffer[i] == '\n' && stdio_out_prev != '\r') {
    2b1e:	aa03      	add	r2, sp, #12
    2b20:	9b24      	ldr	r3, [sp, #144]	; 0x90
    2b22:	4413      	add	r3, r2
    2b24:	781b      	ldrb	r3, [r3, #0]
    2b26:	2b0a      	cmp	r3, #10
    2b28:	d107      	bne.n	2b3a <mbed_error_vfprintf+0x5e>
    2b2a:	f89d 3097 	ldrb.w	r3, [sp, #151]	; 0x97
    2b2e:	2b0d      	cmp	r3, #13
    2b30:	d003      	beq.n	2b3a <mbed_error_vfprintf+0x5e>
                serial_putc(&stdio_uart, '\r');
    2b32:	210d      	movs	r1, #13
    2b34:	480f      	ldr	r0, [pc, #60]	; (2b74 <mbed_error_vfprintf+0x98>)
    2b36:	f006 fff7 	bl	9b28 <serial_putc>
            }
            serial_putc(&stdio_uart, buffer[i]);
    2b3a:	aa03      	add	r2, sp, #12
    2b3c:	9b24      	ldr	r3, [sp, #144]	; 0x90
    2b3e:	4413      	add	r3, r2
    2b40:	781b      	ldrb	r3, [r3, #0]
    2b42:	4619      	mov	r1, r3
    2b44:	480b      	ldr	r0, [pc, #44]	; (2b74 <mbed_error_vfprintf+0x98>)
    2b46:	f006 ffef 	bl	9b28 <serial_putc>
            stdio_out_prev = buffer[i];
    2b4a:	aa03      	add	r2, sp, #12
    2b4c:	9b24      	ldr	r3, [sp, #144]	; 0x90
    2b4e:	4413      	add	r3, r2
    2b50:	781b      	ldrb	r3, [r3, #0]
    2b52:	f88d 3097 	strb.w	r3, [sp, #151]	; 0x97
        for (int i = 0; i < size; i++) {
    2b56:	9b24      	ldr	r3, [sp, #144]	; 0x90
    2b58:	3301      	adds	r3, #1
    2b5a:	9324      	str	r3, [sp, #144]	; 0x90
    2b5c:	9a24      	ldr	r2, [sp, #144]	; 0x90
    2b5e:	9b23      	ldr	r3, [sp, #140]	; 0x8c
    2b60:	429a      	cmp	r2, r3
    2b62:	dbdc      	blt.n	2b1e <mbed_error_vfprintf+0x42>
        for (int i = 0; i < size; i++) {
            serial_putc(&stdio_uart, buffer[i]);
        }
#endif
    }
    core_util_critical_section_exit();
    2b64:	f000 f83e 	bl	2be4 <core_util_critical_section_exit>
#endif
}
    2b68:	bf00      	nop
    2b6a:	b027      	add	sp, #156	; 0x9c
    2b6c:	f85d fb04 	ldr.w	pc, [sp], #4
    2b70:	20001538 	.word	0x20001538
    2b74:	20002f6c 	.word	0x20002f6c

00002b78 <core_util_are_interrupts_enabled>:
#endif

static volatile uint32_t critical_section_reentrancy_counter = 0;

bool core_util_are_interrupts_enabled(void)
{
    2b78:	b082      	sub	sp, #8
  __ASM volatile ("MRS %0, primask" : "=r" (result) :: "memory");
    2b7a:	f3ef 8310 	mrs	r3, PRIMASK
    2b7e:	9301      	str	r3, [sp, #4]
  return(result);
    2b80:	9b01      	ldr	r3, [sp, #4]
#if defined(__CORTEX_A9)
    return ((__get_CPSR() & 0x80) == 0);
#else
    return ((__get_PRIMASK() & 0x1) == 0);
    2b82:	f003 0301 	and.w	r3, r3, #1
    2b86:	2b00      	cmp	r3, #0
    2b88:	bf0c      	ite	eq
    2b8a:	2301      	moveq	r3, #1
    2b8c:	2300      	movne	r3, #0
    2b8e:	b2db      	uxtb	r3, r3
#endif
}
    2b90:	4618      	mov	r0, r3
    2b92:	b002      	add	sp, #8
    2b94:	4770      	bx	lr

00002b96 <core_util_is_isr_active>:

bool core_util_is_isr_active(void)
{
    2b96:	b082      	sub	sp, #8
  __ASM volatile ("MRS %0, ipsr" : "=r" (result) );
    2b98:	f3ef 8305 	mrs	r3, IPSR
    2b9c:	9301      	str	r3, [sp, #4]
  return(result);
    2b9e:	9b01      	ldr	r3, [sp, #4]
        case CPSR_M_SVC:
        default:
            return true;
    }
#else
    return (__get_IPSR() != 0U);
    2ba0:	2b00      	cmp	r3, #0
    2ba2:	bf14      	ite	ne
    2ba4:	2301      	movne	r3, #1
    2ba6:	2300      	moveq	r3, #0
    2ba8:	b2db      	uxtb	r3, r3
#endif
}
    2baa:	4618      	mov	r0, r3
    2bac:	b002      	add	sp, #8
    2bae:	4770      	bx	lr

00002bb0 <core_util_critical_section_enter>:
{
    return hal_in_critical_section();
}

void core_util_critical_section_enter(void)
{
    2bb0:	b508      	push	{r3, lr}
// FIXME
#ifdef FEATURE_UVISOR
#warning "core_util_critical_section_enter needs fixing to work from unprivileged code"
#else
    // If the reentrancy counter overflows something has gone badly wrong.
    MBED_ASSERT(critical_section_reentrancy_counter < UINT32_MAX);
    2bb2:	4b09      	ldr	r3, [pc, #36]	; (2bd8 <core_util_critical_section_enter+0x28>)
    2bb4:	681b      	ldr	r3, [r3, #0]
    2bb6:	f1b3 3fff 	cmp.w	r3, #4294967295	; 0xffffffff
    2bba:	d104      	bne.n	2bc6 <core_util_critical_section_enter+0x16>
    2bbc:	2255      	movs	r2, #85	; 0x55
    2bbe:	4907      	ldr	r1, [pc, #28]	; (2bdc <core_util_critical_section_enter+0x2c>)
    2bc0:	4807      	ldr	r0, [pc, #28]	; (2be0 <core_util_critical_section_enter+0x30>)
    2bc2:	f7ff ff27 	bl	2a14 <mbed_assert_internal>
#endif /* FEATURE_UVISOR */

    hal_critical_section_enter();
    2bc6:	f7fe fffd 	bl	1bc4 <hal_critical_section_enter>

    ++critical_section_reentrancy_counter;
    2bca:	4b03      	ldr	r3, [pc, #12]	; (2bd8 <core_util_critical_section_enter+0x28>)
    2bcc:	681b      	ldr	r3, [r3, #0]
    2bce:	3301      	adds	r3, #1
    2bd0:	4a01      	ldr	r2, [pc, #4]	; (2bd8 <core_util_critical_section_enter+0x28>)
    2bd2:	6013      	str	r3, [r2, #0]
}
    2bd4:	bf00      	nop
    2bd6:	bd08      	pop	{r3, pc}
    2bd8:	20000cf0 	.word	0x20000cf0
    2bdc:	00010bd4 	.word	0x00010bd4
    2be0:	00010bf8 	.word	0x00010bf8

00002be4 <core_util_critical_section_exit>:

void core_util_critical_section_exit(void)
{
    2be4:	b508      	push	{r3, lr}
#ifdef FEATURE_UVISOR
#warning "core_util_critical_section_exit needs fixing to work from unprivileged code"
#endif /* FEATURE_UVISOR */

    // If critical_section_enter has not previously been called, do nothing
    if (critical_section_reentrancy_counter == 0) {
    2be6:	4b09      	ldr	r3, [pc, #36]	; (2c0c <core_util_critical_section_exit+0x28>)
    2be8:	681b      	ldr	r3, [r3, #0]
    2bea:	2b00      	cmp	r3, #0
    2bec:	d00b      	beq.n	2c06 <core_util_critical_section_exit+0x22>
        return;
    }

    --critical_section_reentrancy_counter;
    2bee:	4b07      	ldr	r3, [pc, #28]	; (2c0c <core_util_critical_section_exit+0x28>)
    2bf0:	681b      	ldr	r3, [r3, #0]
    2bf2:	3b01      	subs	r3, #1
    2bf4:	4a05      	ldr	r2, [pc, #20]	; (2c0c <core_util_critical_section_exit+0x28>)
    2bf6:	6013      	str	r3, [r2, #0]

    if (critical_section_reentrancy_counter == 0) {
    2bf8:	4b04      	ldr	r3, [pc, #16]	; (2c0c <core_util_critical_section_exit+0x28>)
    2bfa:	681b      	ldr	r3, [r3, #0]
    2bfc:	2b00      	cmp	r3, #0
    2bfe:	d103      	bne.n	2c08 <core_util_critical_section_exit+0x24>
        hal_critical_section_exit();
    2c00:	f7fe fffe 	bl	1c00 <hal_critical_section_exit>
    2c04:	e000      	b.n	2c08 <core_util_critical_section_exit+0x24>
        return;
    2c06:	bf00      	nop
    }
}
    2c08:	bd08      	pop	{r3, pc}
    2c0a:	bf00      	nop
    2c0c:	20000cf0 	.word	0x20000cf0

00002c10 <core_util_atomic_incr_u16>:
    } while (__STREXB(newValue, valuePtr));
    return newValue;
}

uint16_t core_util_atomic_incr_u16(volatile uint16_t *valuePtr, uint16_t delta)
{
    2c10:	b088      	sub	sp, #32
    2c12:	9001      	str	r0, [sp, #4]
    2c14:	460b      	mov	r3, r1
    2c16:	f8ad 3002 	strh.w	r3, [sp, #2]
    2c1a:	9b01      	ldr	r3, [sp, #4]
    2c1c:	9304      	str	r3, [sp, #16]
__STATIC_FORCEINLINE uint16_t __LDREXH(volatile uint16_t *addr)
{
    uint32_t result;

#if (__GNUC__ > 4) || (__GNUC__ == 4 && __GNUC_MINOR__ >= 8)
   __ASM volatile ("ldrexh %0, %1" : "=r" (result) : "Q" (*addr) );
    2c1e:	9b04      	ldr	r3, [sp, #16]
    2c20:	e8d3 3f5f 	ldrexh	r3, [r3]
    2c24:	9303      	str	r3, [sp, #12]
    /* Prior to GCC 4.8, "Q" will be expanded to [rx, #0] which is not
       accepted by assembler. So has to use following less efficient pattern.
    */
   __ASM volatile ("ldrexh %0, [%1]" : "=r" (result) : "r" (addr) : "memory" );
#endif
   return ((uint16_t) result);    /* Add explicit type cast here */
    2c26:	9b03      	ldr	r3, [sp, #12]
    2c28:	b29a      	uxth	r2, r3
    uint16_t newValue;
    do {
        newValue = __LDREXH(valuePtr) + delta;
    2c2a:	f8bd 3002 	ldrh.w	r3, [sp, #2]
    2c2e:	4413      	add	r3, r2
    2c30:	f8ad 301e 	strh.w	r3, [sp, #30]
    2c34:	f8bd 301e 	ldrh.w	r3, [sp, #30]
    2c38:	f8ad 301c 	strh.w	r3, [sp, #28]
    2c3c:	9b01      	ldr	r3, [sp, #4]
    2c3e:	9306      	str	r3, [sp, #24]
 */
__STATIC_FORCEINLINE uint32_t __STREXH(uint16_t value, volatile uint16_t *addr)
{
   uint32_t result;

   __ASM volatile ("strexh %0, %2, %1" : "=&r" (result), "=Q" (*addr) : "r" ((uint32_t)value) );
    2c40:	f8bd 201c 	ldrh.w	r2, [sp, #28]
    2c44:	9906      	ldr	r1, [sp, #24]
    2c46:	e8c1 2f53 	strexh	r3, r2, [r1]
    2c4a:	9305      	str	r3, [sp, #20]
   return(result);
    2c4c:	9b05      	ldr	r3, [sp, #20]
    } while (__STREXH(newValue, valuePtr));
    2c4e:	2b00      	cmp	r3, #0
    2c50:	d1e3      	bne.n	2c1a <core_util_atomic_incr_u16+0xa>
    return newValue;
    2c52:	f8bd 301e 	ldrh.w	r3, [sp, #30]
}
    2c56:	4618      	mov	r0, r3
    2c58:	b008      	add	sp, #32
    2c5a:	4770      	bx	lr

00002c5c <core_util_atomic_decr_u16>:
    } while (__STREXB(newValue, valuePtr));
    return newValue;
}

uint16_t core_util_atomic_decr_u16(volatile uint16_t *valuePtr, uint16_t delta)
{
    2c5c:	b088      	sub	sp, #32
    2c5e:	9001      	str	r0, [sp, #4]
    2c60:	460b      	mov	r3, r1
    2c62:	f8ad 3002 	strh.w	r3, [sp, #2]
    2c66:	9b01      	ldr	r3, [sp, #4]
    2c68:	9304      	str	r3, [sp, #16]
   __ASM volatile ("ldrexh %0, %1" : "=r" (result) : "Q" (*addr) );
    2c6a:	9b04      	ldr	r3, [sp, #16]
    2c6c:	e8d3 3f5f 	ldrexh	r3, [r3]
    2c70:	9303      	str	r3, [sp, #12]
   return ((uint16_t) result);    /* Add explicit type cast here */
    2c72:	9b03      	ldr	r3, [sp, #12]
    2c74:	b29a      	uxth	r2, r3
    uint16_t newValue;
    do {
        newValue = __LDREXH(valuePtr) - delta;
    2c76:	f8bd 3002 	ldrh.w	r3, [sp, #2]
    2c7a:	1ad3      	subs	r3, r2, r3
    2c7c:	f8ad 301e 	strh.w	r3, [sp, #30]
    2c80:	f8bd 301e 	ldrh.w	r3, [sp, #30]
    2c84:	f8ad 301c 	strh.w	r3, [sp, #28]
    2c88:	9b01      	ldr	r3, [sp, #4]
    2c8a:	9306      	str	r3, [sp, #24]
   __ASM volatile ("strexh %0, %2, %1" : "=&r" (result), "=Q" (*addr) : "r" ((uint32_t)value) );
    2c8c:	f8bd 201c 	ldrh.w	r2, [sp, #28]
    2c90:	9906      	ldr	r1, [sp, #24]
    2c92:	e8c1 2f53 	strexh	r3, r2, [r1]
    2c96:	9305      	str	r3, [sp, #20]
   return(result);
    2c98:	9b05      	ldr	r3, [sp, #20]
    } while (__STREXH(newValue, valuePtr));
    2c9a:	2b00      	cmp	r3, #0
    2c9c:	d1e3      	bne.n	2c66 <core_util_atomic_decr_u16+0xa>
    return newValue;
    2c9e:	f8bd 301e 	ldrh.w	r3, [sp, #30]
}
    2ca2:	4618      	mov	r0, r3
    2ca4:	b008      	add	sp, #32
    2ca6:	4770      	bx	lr

00002ca8 <mbed_halt_system>:
static void print_error_report(mbed_error_ctx *ctx, const char *);
static mbed_error_status_t handle_error(mbed_error_status_t error_status, unsigned int error_value, const char *filename, int line_number);

//Helper function to halt the system
static void mbed_halt_system(void)
{
    2ca8:	b508      	push	{r3, lr}
    //If not in ISR context exit, otherwise spin on WFI
    if (core_util_is_isr_active() || !core_util_are_interrupts_enabled()) {
    2caa:	f7ff ff74 	bl	2b96 <core_util_is_isr_active>
    2cae:	4603      	mov	r3, r0
    2cb0:	2b00      	cmp	r3, #0
    2cb2:	d107      	bne.n	2cc4 <mbed_halt_system+0x1c>
    2cb4:	f7ff ff60 	bl	2b78 <core_util_are_interrupts_enabled>
    2cb8:	4603      	mov	r3, r0
    2cba:	f083 0301 	eor.w	r3, r3, #1
    2cbe:	b2db      	uxtb	r3, r3
    2cc0:	2b00      	cmp	r3, #0
    2cc2:	d001      	beq.n	2cc8 <mbed_halt_system+0x20>
        for (;;) {
            __WFI();
    2cc4:	bf30      	wfi
    2cc6:	e7fd      	b.n	2cc4 <mbed_halt_system+0x1c>
        }
    } else {
        //exit eventually calls mbed_die
        exit(1);
    2cc8:	2001      	movs	r0, #1
    2cca:	f000 feeb 	bl	3aa4 <__wrap_exit>
	...

00002cd0 <handle_error>:
    exit(1);
}

//Set an error status with the error handling system
static mbed_error_status_t handle_error(mbed_error_status_t error_status, unsigned int error_value, const char *filename, int line_number)
{
    2cd0:	b510      	push	{r4, lr}
    2cd2:	b094      	sub	sp, #80	; 0x50
    2cd4:	4674      	mov	r4, lr
    2cd6:	9003      	str	r0, [sp, #12]
    2cd8:	9102      	str	r1, [sp, #8]
    2cda:	9201      	str	r2, [sp, #4]
    2cdc:	9300      	str	r3, [sp, #0]
    mbed_error_ctx current_error_ctx;

    //Error status should always be < 0
    if (error_status >= 0) {
    2cde:	9b03      	ldr	r3, [sp, #12]
    2ce0:	2b00      	cmp	r3, #0
    2ce2:	db01      	blt.n	2ce8 <handle_error+0x18>
        //This is a weird situation, someone called mbed_error with invalid error code.
        //We will still handle the situation but change the error code to ERROR_INVALID_ARGUMENT, atleast the context will have info on who called it
        error_status = MBED_ERROR_INVALID_ARGUMENT;
    2ce4:	4b35      	ldr	r3, [pc, #212]	; (2dbc <handle_error+0xec>)
    2ce6:	9303      	str	r3, [sp, #12]
    }

    //Prevent corruption by holding out other callers
    //and we also need this until we remove the "error" call completely
    while (error_in_progress == 1);
    2ce8:	bf00      	nop
    2cea:	4b35      	ldr	r3, [pc, #212]	; (2dc0 <handle_error+0xf0>)
    2cec:	781b      	ldrb	r3, [r3, #0]
    2cee:	2b01      	cmp	r3, #1
    2cf0:	d0fb      	beq.n	2cea <handle_error+0x1a>

    //Use critsect here, as we don't want inadvertant modification of this global variable
    core_util_critical_section_enter();
    2cf2:	f7ff ff5d 	bl	2bb0 <core_util_critical_section_enter>
    error_in_progress = 1;
    2cf6:	4b32      	ldr	r3, [pc, #200]	; (2dc0 <handle_error+0xf0>)
    2cf8:	2201      	movs	r2, #1
    2cfa:	701a      	strb	r2, [r3, #0]
    core_util_critical_section_exit();
    2cfc:	f7ff ff72 	bl	2be4 <core_util_critical_section_exit>

    //Increment error count
    error_count++;
    2d00:	4b30      	ldr	r3, [pc, #192]	; (2dc4 <handle_error+0xf4>)
    2d02:	681b      	ldr	r3, [r3, #0]
    2d04:	3301      	adds	r3, #1
    2d06:	4a2f      	ldr	r2, [pc, #188]	; (2dc4 <handle_error+0xf4>)
    2d08:	6013      	str	r3, [r2, #0]

    //Clear the context capturing buffer
    memset(&current_error_ctx, sizeof(mbed_error_ctx), 0);
    2d0a:	ab04      	add	r3, sp, #16
    2d0c:	2200      	movs	r2, #0
    2d0e:	2134      	movs	r1, #52	; 0x34
    2d10:	4618      	mov	r0, r3
    2d12:	f008 fbc7 	bl	b4a4 <memset>
    //Capture error information
    current_error_ctx.error_status = error_status;
    2d16:	9b03      	ldr	r3, [sp, #12]
    2d18:	9304      	str	r3, [sp, #16]
    current_error_ctx.error_address = (uint32_t)MBED_CALLER_ADDR();
    2d1a:	4623      	mov	r3, r4
    2d1c:	9305      	str	r3, [sp, #20]
    current_error_ctx.error_value = error_value;
    2d1e:	9b02      	ldr	r3, [sp, #8]
    2d20:	9306      	str	r3, [sp, #24]
#ifdef MBED_CONF_RTOS_PRESENT
    //Capture thread info
    osRtxThread_t *current_thread = osRtxInfo.thread.run.curr;
    2d22:	4b29      	ldr	r3, [pc, #164]	; (2dc8 <handle_error+0xf8>)
    2d24:	695b      	ldr	r3, [r3, #20]
    2d26:	9313      	str	r3, [sp, #76]	; 0x4c
    current_error_ctx.thread_id = (uint32_t)current_thread;
    2d28:	9b13      	ldr	r3, [sp, #76]	; 0x4c
    2d2a:	9307      	str	r3, [sp, #28]
    current_error_ctx.thread_entry_address = (uint32_t)current_thread->thread_addr;
    2d2c:	9b13      	ldr	r3, [sp, #76]	; 0x4c
    2d2e:	6bdb      	ldr	r3, [r3, #60]	; 0x3c
    2d30:	9308      	str	r3, [sp, #32]
    current_error_ctx.thread_stack_size = current_thread->stack_size;
    2d32:	9b13      	ldr	r3, [sp, #76]	; 0x4c
    2d34:	6b5b      	ldr	r3, [r3, #52]	; 0x34
    2d36:	9309      	str	r3, [sp, #36]	; 0x24
    current_error_ctx.thread_stack_mem = (uint32_t)current_thread->stack_mem;
    2d38:	9b13      	ldr	r3, [sp, #76]	; 0x4c
    2d3a:	6b1b      	ldr	r3, [r3, #48]	; 0x30
    2d3c:	930a      	str	r3, [sp, #40]	; 0x28
  __ASM volatile ("MRS %0, ipsr" : "=r" (result) );
    2d3e:	f3ef 8305 	mrs	r3, IPSR
    2d42:	9312      	str	r3, [sp, #72]	; 0x48
  return(result);
    2d44:	9b12      	ldr	r3, [sp, #72]	; 0x48
#ifdef TARGET_CORTEX_M
    GET_CURRENT_SP(current_error_ctx.thread_current_sp);
    2d46:	2b00      	cmp	r3, #0
    2d48:	d005      	beq.n	2d56 <handle_error+0x86>
  __ASM volatile ("MRS %0, msp" : "=r" (result) );
    2d4a:	f3ef 8308 	mrs	r3, MSP
    2d4e:	461c      	mov	r4, r3
  return(result);
    2d50:	4623      	mov	r3, r4
    2d52:	930b      	str	r3, [sp, #44]	; 0x2c
    2d54:	e012      	b.n	2d7c <handle_error+0xac>
  __ASM volatile ("MRS %0, control" : "=r" (result) );
    2d56:	f3ef 8314 	mrs	r3, CONTROL
    2d5a:	9311      	str	r3, [sp, #68]	; 0x44
  return(result);
    2d5c:	9b11      	ldr	r3, [sp, #68]	; 0x44
    2d5e:	f003 0302 	and.w	r3, r3, #2
    2d62:	2b00      	cmp	r3, #0
    2d64:	d105      	bne.n	2d72 <handle_error+0xa2>
  __ASM volatile ("MRS %0, msp" : "=r" (result) );
    2d66:	f3ef 8308 	mrs	r3, MSP
    2d6a:	461c      	mov	r4, r3
  return(result);
    2d6c:	4623      	mov	r3, r4
    2d6e:	930b      	str	r3, [sp, #44]	; 0x2c
    2d70:	e004      	b.n	2d7c <handle_error+0xac>
  __ASM volatile ("MRS %0, psp"  : "=r" (result) );
    2d72:	f3ef 8309 	mrs	r3, PSP
    2d76:	461c      	mov	r4, r3
  return(result);
    2d78:	4623      	mov	r3, r4
    2d7a:	930b      	str	r3, [sp, #44]	; 0x2c
    strncpy(current_error_ctx.error_filename, filename, MBED_CONF_PLATFORM_MAX_ERROR_FILENAME_LEN);
    current_error_ctx.error_line_number = line_number;
#endif

    //Capture the fist system error and store it
    if (error_count == 1) { //first error
    2d7c:	4b11      	ldr	r3, [pc, #68]	; (2dc4 <handle_error+0xf4>)
    2d7e:	681b      	ldr	r3, [r3, #0]
    2d80:	2b01      	cmp	r3, #1
    2d82:	d105      	bne.n	2d90 <handle_error+0xc0>
        memcpy(&first_error_ctx, &current_error_ctx, sizeof(mbed_error_ctx));
    2d84:	ab04      	add	r3, sp, #16
    2d86:	2234      	movs	r2, #52	; 0x34
    2d88:	4619      	mov	r1, r3
    2d8a:	4810      	ldr	r0, [pc, #64]	; (2dcc <handle_error+0xfc>)
    2d8c:	f7fd fdc8 	bl	920 <memcpy>
    }

    //copy this error to last error
    memcpy(&last_error_ctx, &current_error_ctx, sizeof(mbed_error_ctx));
    2d90:	ab04      	add	r3, sp, #16
    2d92:	2234      	movs	r2, #52	; 0x34
    2d94:	4619      	mov	r1, r3
    2d96:	480e      	ldr	r0, [pc, #56]	; (2dd0 <handle_error+0x100>)
    2d98:	f7fd fdc2 	bl	920 <memcpy>
    //Log the error with error log
    mbed_error_hist_put(&current_error_ctx);
#endif

    //Call the error hook if available
    if (error_hook != NULL) {
    2d9c:	4b0d      	ldr	r3, [pc, #52]	; (2dd4 <handle_error+0x104>)
    2d9e:	681b      	ldr	r3, [r3, #0]
    2da0:	2b00      	cmp	r3, #0
    2da2:	d003      	beq.n	2dac <handle_error+0xdc>
        error_hook(&last_error_ctx);
    2da4:	4b0b      	ldr	r3, [pc, #44]	; (2dd4 <handle_error+0x104>)
    2da6:	681b      	ldr	r3, [r3, #0]
    2da8:	4809      	ldr	r0, [pc, #36]	; (2dd0 <handle_error+0x100>)
    2daa:	4798      	blx	r3
    }

    error_in_progress = 0;
    2dac:	4b04      	ldr	r3, [pc, #16]	; (2dc0 <handle_error+0xf0>)
    2dae:	2200      	movs	r2, #0
    2db0:	701a      	strb	r2, [r3, #0]

    return MBED_SUCCESS;
    2db2:	2300      	movs	r3, #0
}
    2db4:	4618      	mov	r0, r3
    2db6:	b014      	add	sp, #80	; 0x50
    2db8:	bd10      	pop	{r4, pc}
    2dba:	bf00      	nop
    2dbc:	80ff0101 	.word	0x80ff0101
    2dc0:	20000cf4 	.word	0x20000cf4
    2dc4:	20000cf8 	.word	0x20000cf8
    2dc8:	20000110 	.word	0x20000110
    2dcc:	20000cfc 	.word	0x20000cfc
    2dd0:	20000d30 	.word	0x20000d30
    2dd4:	20000d64 	.word	0x20000d64

00002dd8 <mbed_error>:
    return handle_error(error_status, error_value, filename, line_number);
}

//Sets a fatal error, this function is marked WEAK to be able to override this for some tests
WEAK mbed_error_status_t mbed_error(mbed_error_status_t error_status, const char *error_msg, unsigned int error_value, const char *filename, int line_number)
{
    2dd8:	b500      	push	{lr}
    2dda:	b085      	sub	sp, #20
    2ddc:	9003      	str	r0, [sp, #12]
    2dde:	9102      	str	r1, [sp, #8]
    2de0:	9201      	str	r2, [sp, #4]
    2de2:	9300      	str	r3, [sp, #0]
    //set the error reported and then halt the system
    if (MBED_SUCCESS != handle_error(error_status, error_value, filename, line_number)) {
    2de4:	9b06      	ldr	r3, [sp, #24]
    2de6:	9a00      	ldr	r2, [sp, #0]
    2de8:	9901      	ldr	r1, [sp, #4]
    2dea:	9803      	ldr	r0, [sp, #12]
    2dec:	f7ff ff70 	bl	2cd0 <handle_error>
    2df0:	4603      	mov	r3, r0
    2df2:	2b00      	cmp	r3, #0
    2df4:	d001      	beq.n	2dfa <mbed_error+0x22>
        return MBED_ERROR_FAILED_OPERATION;
    2df6:	4b06      	ldr	r3, [pc, #24]	; (2e10 <mbed_error+0x38>)
    2df8:	e006      	b.n	2e08 <mbed_error+0x30>
    }

    //On fatal errors print the error context/report
    ERROR_REPORT(&last_error_ctx, error_msg);
    2dfa:	9902      	ldr	r1, [sp, #8]
    2dfc:	4805      	ldr	r0, [pc, #20]	; (2e14 <mbed_error+0x3c>)
    2dfe:	f000 f80b 	bl	2e18 <print_error_report>
    mbed_halt_system();
    2e02:	f7ff ff51 	bl	2ca8 <mbed_halt_system>

    return MBED_ERROR_FAILED_OPERATION;
    2e06:	4b02      	ldr	r3, [pc, #8]	; (2e10 <mbed_error+0x38>)
}
    2e08:	4618      	mov	r0, r3
    2e0a:	b005      	add	sp, #20
    2e0c:	f85d fb04 	ldr.w	pc, [sp], #4
    2e10:	80ff010f 	.word	0x80ff010f
    2e14:	20000d30 	.word	0x20000d30

00002e18 <print_error_report>:
}
#endif

#ifndef NDEBUG
static void print_error_report(mbed_error_ctx *ctx, const char *error_msg)
{
    2e18:	b510      	push	{r4, lr}
    2e1a:	b086      	sub	sp, #24
    2e1c:	9003      	str	r0, [sp, #12]
    2e1e:	9102      	str	r1, [sp, #8]
    uint32_t error_code = MBED_GET_ERROR_CODE(ctx->error_status);
    2e20:	9b03      	ldr	r3, [sp, #12]
    2e22:	681b      	ldr	r3, [r3, #0]
    2e24:	175b      	asrs	r3, r3, #29
    2e26:	f003 0303 	and.w	r3, r3, #3
    2e2a:	2b03      	cmp	r3, #3
    2e2c:	d103      	bne.n	2e36 <print_error_report+0x1e>
    2e2e:	9b03      	ldr	r3, [sp, #12]
    2e30:	681b      	ldr	r3, [r3, #0]
    2e32:	425b      	negs	r3, r3
    2e34:	e002      	b.n	2e3c <print_error_report+0x24>
    2e36:	9b03      	ldr	r3, [sp, #12]
    2e38:	681b      	ldr	r3, [r3, #0]
    2e3a:	b29b      	uxth	r3, r3
    2e3c:	9305      	str	r3, [sp, #20]
    uint32_t error_module = MBED_GET_ERROR_MODULE(ctx->error_status);
    2e3e:	9b03      	ldr	r3, [sp, #12]
    2e40:	681b      	ldr	r3, [r3, #0]
    2e42:	141b      	asrs	r3, r3, #16
    2e44:	b2db      	uxtb	r3, r3
    2e46:	9304      	str	r3, [sp, #16]

    mbed_error_printf("\n\n++ MbedOS Error Info ++\nError Status: 0x%X Code: %d Module: %d\nError Message: ", ctx->error_status, error_code, error_module);
    2e48:	9b03      	ldr	r3, [sp, #12]
    2e4a:	6819      	ldr	r1, [r3, #0]
    2e4c:	9b04      	ldr	r3, [sp, #16]
    2e4e:	9a05      	ldr	r2, [sp, #20]
    2e50:	483d      	ldr	r0, [pc, #244]	; (2f48 <print_error_report+0x130>)
    2e52:	f7ff fe34 	bl	2abe <mbed_error_printf>

    switch (error_code) {
    2e56:	9b05      	ldr	r3, [sp, #20]
    2e58:	f2a3 1331 	subw	r3, r3, #305	; 0x131
    2e5c:	2b07      	cmp	r3, #7
    2e5e:	d84b      	bhi.n	2ef8 <print_error_report+0xe0>
    2e60:	a201      	add	r2, pc, #4	; (adr r2, 2e68 <print_error_report+0x50>)
    2e62:	f852 f023 	ldr.w	pc, [r2, r3, lsl #2]
    2e66:	bf00      	nop
    2e68:	00002e89 	.word	0x00002e89
    2e6c:	00002e97 	.word	0x00002e97
    2e70:	00002ea5 	.word	0x00002ea5
    2e74:	00002eb3 	.word	0x00002eb3
    2e78:	00002ec1 	.word	0x00002ec1
    2e7c:	00002edd 	.word	0x00002edd
    2e80:	00002ecf 	.word	0x00002ecf
    2e84:	00002eeb 	.word	0x00002eeb
        //These are errors reported by kernel handled from mbed_rtx_handlers
        case MBED_ERROR_CODE_RTOS_EVENT:
            mbed_error_printf("Kernel Error: 0x%X, ", ctx->error_value);
    2e88:	9b03      	ldr	r3, [sp, #12]
    2e8a:	689b      	ldr	r3, [r3, #8]
    2e8c:	4619      	mov	r1, r3
    2e8e:	482f      	ldr	r0, [pc, #188]	; (2f4c <print_error_report+0x134>)
    2e90:	f7ff fe15 	bl	2abe <mbed_error_printf>
            break;
    2e94:	e031      	b.n	2efa <print_error_report+0xe2>

        case MBED_ERROR_CODE_RTOS_THREAD_EVENT:
            mbed_error_printf("Thread: 0x%X, ", ctx->error_value);
    2e96:	9b03      	ldr	r3, [sp, #12]
    2e98:	689b      	ldr	r3, [r3, #8]
    2e9a:	4619      	mov	r1, r3
    2e9c:	482c      	ldr	r0, [pc, #176]	; (2f50 <print_error_report+0x138>)
    2e9e:	f7ff fe0e 	bl	2abe <mbed_error_printf>
            break;
    2ea2:	e02a      	b.n	2efa <print_error_report+0xe2>

        case MBED_ERROR_CODE_RTOS_MUTEX_EVENT:
            mbed_error_printf("Mutex: 0x%X, ", ctx->error_value);
    2ea4:	9b03      	ldr	r3, [sp, #12]
    2ea6:	689b      	ldr	r3, [r3, #8]
    2ea8:	4619      	mov	r1, r3
    2eaa:	482a      	ldr	r0, [pc, #168]	; (2f54 <print_error_report+0x13c>)
    2eac:	f7ff fe07 	bl	2abe <mbed_error_printf>
            break;
    2eb0:	e023      	b.n	2efa <print_error_report+0xe2>

        case MBED_ERROR_CODE_RTOS_SEMAPHORE_EVENT:
            mbed_error_printf("Semaphore: 0x%X, ", ctx->error_value);
    2eb2:	9b03      	ldr	r3, [sp, #12]
    2eb4:	689b      	ldr	r3, [r3, #8]
    2eb6:	4619      	mov	r1, r3
    2eb8:	4827      	ldr	r0, [pc, #156]	; (2f58 <print_error_report+0x140>)
    2eba:	f7ff fe00 	bl	2abe <mbed_error_printf>
            break;
    2ebe:	e01c      	b.n	2efa <print_error_report+0xe2>

        case MBED_ERROR_CODE_RTOS_MEMORY_POOL_EVENT:
            mbed_error_printf("MemoryPool: 0x%X, ", ctx->error_value);
    2ec0:	9b03      	ldr	r3, [sp, #12]
    2ec2:	689b      	ldr	r3, [r3, #8]
    2ec4:	4619      	mov	r1, r3
    2ec6:	4825      	ldr	r0, [pc, #148]	; (2f5c <print_error_report+0x144>)
    2ec8:	f7ff fdf9 	bl	2abe <mbed_error_printf>
            break;
    2ecc:	e015      	b.n	2efa <print_error_report+0xe2>

        case MBED_ERROR_CODE_RTOS_EVENT_FLAGS_EVENT:
            mbed_error_printf("EventFlags: 0x%X, ", ctx->error_value);
    2ece:	9b03      	ldr	r3, [sp, #12]
    2ed0:	689b      	ldr	r3, [r3, #8]
    2ed2:	4619      	mov	r1, r3
    2ed4:	4822      	ldr	r0, [pc, #136]	; (2f60 <print_error_report+0x148>)
    2ed6:	f7ff fdf2 	bl	2abe <mbed_error_printf>
            break;
    2eda:	e00e      	b.n	2efa <print_error_report+0xe2>

        case MBED_ERROR_CODE_RTOS_TIMER_EVENT:
            mbed_error_printf("Timer: 0x%X, ", ctx->error_value);
    2edc:	9b03      	ldr	r3, [sp, #12]
    2ede:	689b      	ldr	r3, [r3, #8]
    2ee0:	4619      	mov	r1, r3
    2ee2:	4820      	ldr	r0, [pc, #128]	; (2f64 <print_error_report+0x14c>)
    2ee4:	f7ff fdeb 	bl	2abe <mbed_error_printf>
            break;
    2ee8:	e007      	b.n	2efa <print_error_report+0xe2>

        case MBED_ERROR_CODE_RTOS_MESSAGE_QUEUE_EVENT:
            mbed_error_printf("MessageQueue: 0x%X, ", ctx->error_value);
    2eea:	9b03      	ldr	r3, [sp, #12]
    2eec:	689b      	ldr	r3, [r3, #8]
    2eee:	4619      	mov	r1, r3
    2ef0:	481d      	ldr	r0, [pc, #116]	; (2f68 <print_error_report+0x150>)
    2ef2:	f7ff fde4 	bl	2abe <mbed_error_printf>
            break;
    2ef6:	e000      	b.n	2efa <print_error_report+0xe2>

        default:
            //Nothing to do here, just print the error info down
            break;
    2ef8:	bf00      	nop
    }
    mbed_error_printf(error_msg);
    2efa:	9802      	ldr	r0, [sp, #8]
    2efc:	f7ff fddf 	bl	2abe <mbed_error_printf>
    mbed_error_printf("\nLocation: 0x%X", ctx->error_address);
    2f00:	9b03      	ldr	r3, [sp, #12]
    2f02:	685b      	ldr	r3, [r3, #4]
    2f04:	4619      	mov	r1, r3
    2f06:	4819      	ldr	r0, [pc, #100]	; (2f6c <print_error_report+0x154>)
    2f08:	f7ff fdd9 	bl	2abe <mbed_error_printf>
        //for string, we must pass address of a ptr which has the address of the string
        mbed_error_printf("\nFile:%s+%d", ctx->error_filename, ctx->error_line_number);
    }
#endif

    mbed_error_printf("\nError Value: 0x%X", ctx->error_value);
    2f0c:	9b03      	ldr	r3, [sp, #12]
    2f0e:	689b      	ldr	r3, [r3, #8]
    2f10:	4619      	mov	r1, r3
    2f12:	4817      	ldr	r0, [pc, #92]	; (2f70 <print_error_report+0x158>)
    2f14:	f7ff fdd3 	bl	2abe <mbed_error_printf>
#ifdef TARGET_CORTEX_M
    mbed_error_printf("\nCurrent Thread: Id: 0x%X Entry: 0x%X StackSize: 0x%X StackMem: 0x%X SP: 0x%X ",
    2f18:	9b03      	ldr	r3, [sp, #12]
    2f1a:	68d9      	ldr	r1, [r3, #12]
    2f1c:	9b03      	ldr	r3, [sp, #12]
    2f1e:	6918      	ldr	r0, [r3, #16]
    2f20:	9b03      	ldr	r3, [sp, #12]
    2f22:	695c      	ldr	r4, [r3, #20]
    2f24:	9b03      	ldr	r3, [sp, #12]
    2f26:	699b      	ldr	r3, [r3, #24]
    2f28:	9a03      	ldr	r2, [sp, #12]
    2f2a:	69d2      	ldr	r2, [r2, #28]
    2f2c:	9201      	str	r2, [sp, #4]
    2f2e:	9300      	str	r3, [sp, #0]
    2f30:	4623      	mov	r3, r4
    2f32:	4602      	mov	r2, r0
    2f34:	480f      	ldr	r0, [pc, #60]	; (2f74 <print_error_report+0x15c>)
    2f36:	f7ff fdc2 	bl	2abe <mbed_error_printf>
    mbed_error_printf("\nIdle:");
    threads = (osRtxThread_t *)&osRtxInfo.thread.idle;
    print_threads_info(threads);
#endif

    mbed_error_printf("\n-- MbedOS Error Info --\n");
    2f3a:	480f      	ldr	r0, [pc, #60]	; (2f78 <print_error_report+0x160>)
    2f3c:	f7ff fdbf 	bl	2abe <mbed_error_printf>
}
    2f40:	bf00      	nop
    2f42:	b006      	add	sp, #24
    2f44:	bd10      	pop	{r4, pc}
    2f46:	bf00      	nop
    2f48:	00010c44 	.word	0x00010c44
    2f4c:	00010c98 	.word	0x00010c98
    2f50:	00010cb0 	.word	0x00010cb0
    2f54:	00010cc0 	.word	0x00010cc0
    2f58:	00010cd0 	.word	0x00010cd0
    2f5c:	00010ce4 	.word	0x00010ce4
    2f60:	00010cf8 	.word	0x00010cf8
    2f64:	00010d0c 	.word	0x00010d0c
    2f68:	00010d1c 	.word	0x00010d1c
    2f6c:	00010d34 	.word	0x00010d34
    2f70:	00010d44 	.word	0x00010d44
    2f74:	00010d58 	.word	0x00010d58
    2f78:	00010da8 	.word	0x00010da8

00002f7c <mbed_mem_trace_set_callback>:
/******************************************************************************
 * Public interface
 *****************************************************************************/

void mbed_mem_trace_set_callback(mbed_mem_trace_cb_t cb)
{
    2f7c:	b082      	sub	sp, #8
    2f7e:	9001      	str	r0, [sp, #4]
    mem_trace_cb = cb;
    2f80:	4a02      	ldr	r2, [pc, #8]	; (2f8c <mbed_mem_trace_set_callback+0x10>)
    2f82:	9b01      	ldr	r3, [sp, #4]
    2f84:	6013      	str	r3, [r2, #0]
}
    2f86:	bf00      	nop
    2f88:	b002      	add	sp, #8
    2f8a:	4770      	bx	lr
    2f8c:	20000d68 	.word	0x20000d68

00002f90 <mbed_mem_trace_lock>:

void mbed_mem_trace_lock()
{
    2f90:	b508      	push	{r3, lr}
    mem_trace_mutex->lock();
    2f92:	4808      	ldr	r0, [pc, #32]	; (2fb4 <mbed_mem_trace_lock+0x24>)
    2f94:	f7fe fcd2 	bl	193c <_ZN12SingletonPtrIN4rtos5MutexEEptEv>
    2f98:	4603      	mov	r3, r0
    2f9a:	f04f 31ff 	mov.w	r1, #4294967295	; 0xffffffff
    2f9e:	4618      	mov	r0, r3
    2fa0:	f000 ff74 	bl	3e8c <_ZN4rtos5Mutex4lockEm>
    trace_lock_count++;
    2fa4:	4b04      	ldr	r3, [pc, #16]	; (2fb8 <mbed_mem_trace_lock+0x28>)
    2fa6:	781b      	ldrb	r3, [r3, #0]
    2fa8:	3301      	adds	r3, #1
    2faa:	b2da      	uxtb	r2, r3
    2fac:	4b02      	ldr	r3, [pc, #8]	; (2fb8 <mbed_mem_trace_lock+0x28>)
    2fae:	701a      	strb	r2, [r3, #0]
}
    2fb0:	bf00      	nop
    2fb2:	bd08      	pop	{r3, pc}
    2fb4:	20000d70 	.word	0x20000d70
    2fb8:	20000d6c 	.word	0x20000d6c

00002fbc <mbed_mem_trace_unlock>:

void mbed_mem_trace_unlock()
{
    2fbc:	b508      	push	{r3, lr}
    trace_lock_count--;
    2fbe:	4b07      	ldr	r3, [pc, #28]	; (2fdc <mbed_mem_trace_unlock+0x20>)
    2fc0:	781b      	ldrb	r3, [r3, #0]
    2fc2:	3b01      	subs	r3, #1
    2fc4:	b2da      	uxtb	r2, r3
    2fc6:	4b05      	ldr	r3, [pc, #20]	; (2fdc <mbed_mem_trace_unlock+0x20>)
    2fc8:	701a      	strb	r2, [r3, #0]
    mem_trace_mutex->unlock();
    2fca:	4805      	ldr	r0, [pc, #20]	; (2fe0 <mbed_mem_trace_unlock+0x24>)
    2fcc:	f7fe fcb6 	bl	193c <_ZN12SingletonPtrIN4rtos5MutexEEptEv>
    2fd0:	4603      	mov	r3, r0
    2fd2:	4618      	mov	r0, r3
    2fd4:	f000 ff72 	bl	3ebc <_ZN4rtos5Mutex6unlockEv>
}
    2fd8:	bf00      	nop
    2fda:	bd08      	pop	{r3, pc}
    2fdc:	20000d6c 	.word	0x20000d6c
    2fe0:	20000d70 	.word	0x20000d70

00002fe4 <mbed_mem_trace_malloc>:

void *mbed_mem_trace_malloc(void *res, size_t size, void *caller)
{
    2fe4:	b510      	push	{r4, lr}
    2fe6:	b084      	sub	sp, #16
    2fe8:	9003      	str	r0, [sp, #12]
    2fea:	9102      	str	r1, [sp, #8]
    2fec:	9201      	str	r2, [sp, #4]
    if (mem_trace_cb) {
    2fee:	4b09      	ldr	r3, [pc, #36]	; (3014 <mbed_mem_trace_malloc+0x30>)
    2ff0:	681b      	ldr	r3, [r3, #0]
    2ff2:	2b00      	cmp	r3, #0
    2ff4:	d00a      	beq.n	300c <mbed_mem_trace_malloc+0x28>
        if (TRACE_FIRST_LOCK()) {
    2ff6:	4b08      	ldr	r3, [pc, #32]	; (3018 <mbed_mem_trace_malloc+0x34>)
    2ff8:	781b      	ldrb	r3, [r3, #0]
    2ffa:	2b01      	cmp	r3, #1
    2ffc:	dc06      	bgt.n	300c <mbed_mem_trace_malloc+0x28>
            mem_trace_cb(MBED_MEM_TRACE_MALLOC, res, caller, size);
    2ffe:	4b05      	ldr	r3, [pc, #20]	; (3014 <mbed_mem_trace_malloc+0x30>)
    3000:	681c      	ldr	r4, [r3, #0]
    3002:	9b02      	ldr	r3, [sp, #8]
    3004:	9a01      	ldr	r2, [sp, #4]
    3006:	9903      	ldr	r1, [sp, #12]
    3008:	2000      	movs	r0, #0
    300a:	47a0      	blx	r4
        }
    }
    return res;
    300c:	9b03      	ldr	r3, [sp, #12]
}
    300e:	4618      	mov	r0, r3
    3010:	b004      	add	sp, #16
    3012:	bd10      	pop	{r4, pc}
    3014:	20000d68 	.word	0x20000d68
    3018:	20000d6c 	.word	0x20000d6c

0000301c <mbed_mem_trace_realloc>:

void *mbed_mem_trace_realloc(void *res, void *ptr, size_t size, void *caller)
{
    301c:	b510      	push	{r4, lr}
    301e:	b086      	sub	sp, #24
    3020:	9005      	str	r0, [sp, #20]
    3022:	9104      	str	r1, [sp, #16]
    3024:	9203      	str	r2, [sp, #12]
    3026:	9302      	str	r3, [sp, #8]
    if (mem_trace_cb) {
    3028:	4b0a      	ldr	r3, [pc, #40]	; (3054 <mbed_mem_trace_realloc+0x38>)
    302a:	681b      	ldr	r3, [r3, #0]
    302c:	2b00      	cmp	r3, #0
    302e:	d00c      	beq.n	304a <mbed_mem_trace_realloc+0x2e>
        if (TRACE_FIRST_LOCK()) {
    3030:	4b09      	ldr	r3, [pc, #36]	; (3058 <mbed_mem_trace_realloc+0x3c>)
    3032:	781b      	ldrb	r3, [r3, #0]
    3034:	2b01      	cmp	r3, #1
    3036:	dc08      	bgt.n	304a <mbed_mem_trace_realloc+0x2e>
            mem_trace_cb(MBED_MEM_TRACE_REALLOC, res, caller, ptr, size);
    3038:	4b06      	ldr	r3, [pc, #24]	; (3054 <mbed_mem_trace_realloc+0x38>)
    303a:	681c      	ldr	r4, [r3, #0]
    303c:	9b03      	ldr	r3, [sp, #12]
    303e:	9300      	str	r3, [sp, #0]
    3040:	9b04      	ldr	r3, [sp, #16]
    3042:	9a02      	ldr	r2, [sp, #8]
    3044:	9905      	ldr	r1, [sp, #20]
    3046:	2001      	movs	r0, #1
    3048:	47a0      	blx	r4
        }
    }
    return res;
    304a:	9b05      	ldr	r3, [sp, #20]
}
    304c:	4618      	mov	r0, r3
    304e:	b006      	add	sp, #24
    3050:	bd10      	pop	{r4, pc}
    3052:	bf00      	nop
    3054:	20000d68 	.word	0x20000d68
    3058:	20000d6c 	.word	0x20000d6c

0000305c <mbed_mem_trace_calloc>:

void *mbed_mem_trace_calloc(void *res, size_t num, size_t size, void *caller)
{
    305c:	b510      	push	{r4, lr}
    305e:	b086      	sub	sp, #24
    3060:	9005      	str	r0, [sp, #20]
    3062:	9104      	str	r1, [sp, #16]
    3064:	9203      	str	r2, [sp, #12]
    3066:	9302      	str	r3, [sp, #8]
    if (mem_trace_cb) {
    3068:	4b0a      	ldr	r3, [pc, #40]	; (3094 <mbed_mem_trace_calloc+0x38>)
    306a:	681b      	ldr	r3, [r3, #0]
    306c:	2b00      	cmp	r3, #0
    306e:	d00c      	beq.n	308a <mbed_mem_trace_calloc+0x2e>
        if (TRACE_FIRST_LOCK()) {
    3070:	4b09      	ldr	r3, [pc, #36]	; (3098 <mbed_mem_trace_calloc+0x3c>)
    3072:	781b      	ldrb	r3, [r3, #0]
    3074:	2b01      	cmp	r3, #1
    3076:	dc08      	bgt.n	308a <mbed_mem_trace_calloc+0x2e>
            mem_trace_cb(MBED_MEM_TRACE_CALLOC, res, caller, num, size);
    3078:	4b06      	ldr	r3, [pc, #24]	; (3094 <mbed_mem_trace_calloc+0x38>)
    307a:	681c      	ldr	r4, [r3, #0]
    307c:	9b03      	ldr	r3, [sp, #12]
    307e:	9300      	str	r3, [sp, #0]
    3080:	9b04      	ldr	r3, [sp, #16]
    3082:	9a02      	ldr	r2, [sp, #8]
    3084:	9905      	ldr	r1, [sp, #20]
    3086:	2002      	movs	r0, #2
    3088:	47a0      	blx	r4
        }
    }
    return res;
    308a:	9b05      	ldr	r3, [sp, #20]
}
    308c:	4618      	mov	r0, r3
    308e:	b006      	add	sp, #24
    3090:	bd10      	pop	{r4, pc}
    3092:	bf00      	nop
    3094:	20000d68 	.word	0x20000d68
    3098:	20000d6c 	.word	0x20000d6c

0000309c <mbed_mem_trace_free>:

void mbed_mem_trace_free(void *ptr, void *caller)
{
    309c:	b510      	push	{r4, lr}
    309e:	b082      	sub	sp, #8
    30a0:	9001      	str	r0, [sp, #4]
    30a2:	9100      	str	r1, [sp, #0]
    if (mem_trace_cb) {
    30a4:	4b08      	ldr	r3, [pc, #32]	; (30c8 <mbed_mem_trace_free+0x2c>)
    30a6:	681b      	ldr	r3, [r3, #0]
    30a8:	2b00      	cmp	r3, #0
    30aa:	d00a      	beq.n	30c2 <mbed_mem_trace_free+0x26>
        if (TRACE_FIRST_LOCK()) {
    30ac:	4b07      	ldr	r3, [pc, #28]	; (30cc <mbed_mem_trace_free+0x30>)
    30ae:	781b      	ldrb	r3, [r3, #0]
    30b0:	2b01      	cmp	r3, #1
    30b2:	dc06      	bgt.n	30c2 <mbed_mem_trace_free+0x26>
            mem_trace_cb(MBED_MEM_TRACE_FREE, NULL, caller, ptr);
    30b4:	4b04      	ldr	r3, [pc, #16]	; (30c8 <mbed_mem_trace_free+0x2c>)
    30b6:	681c      	ldr	r4, [r3, #0]
    30b8:	9b01      	ldr	r3, [sp, #4]
    30ba:	9a00      	ldr	r2, [sp, #0]
    30bc:	2100      	movs	r1, #0
    30be:	2003      	movs	r0, #3
    30c0:	47a0      	blx	r4
        }
    }
}
    30c2:	bf00      	nop
    30c4:	b002      	add	sp, #8
    30c6:	bd10      	pop	{r4, pc}
    30c8:	20000d68 	.word	0x20000d68
    30cc:	20000d6c 	.word	0x20000d6c

000030d0 <mbed_mem_trace_default_callback>:

void mbed_mem_trace_default_callback(uint8_t op, void *res, void *caller, ...)
{
    30d0:	b40c      	push	{r2, r3}
    30d2:	b500      	push	{lr}
    30d4:	b089      	sub	sp, #36	; 0x24
    30d6:	4603      	mov	r3, r0
    30d8:	9102      	str	r1, [sp, #8]
    30da:	f88d 300f 	strb.w	r3, [sp, #15]
    va_list va;
    size_t temp_s1, temp_s2;
    void *temp_ptr;

    va_start(va, caller);
    30de:	ab0b      	add	r3, sp, #44	; 0x2c
    30e0:	9304      	str	r3, [sp, #16]
    switch (op) {
    30e2:	f89d 300f 	ldrb.w	r3, [sp, #15]
    30e6:	2b03      	cmp	r3, #3
    30e8:	d848      	bhi.n	317c <mbed_mem_trace_default_callback+0xac>
    30ea:	a201      	add	r2, pc, #4	; (adr r2, 30f0 <mbed_mem_trace_default_callback+0x20>)
    30ec:	f852 f023 	ldr.w	pc, [r2, r3, lsl #2]
    30f0:	00003101 	.word	0x00003101
    30f4:	00003119 	.word	0x00003119
    30f8:	0000313f 	.word	0x0000313f
    30fc:	00003165 	.word	0x00003165
        case MBED_MEM_TRACE_MALLOC:
            temp_s1 = va_arg(va, size_t);
    3100:	9b04      	ldr	r3, [sp, #16]
    3102:	1d1a      	adds	r2, r3, #4
    3104:	9204      	str	r2, [sp, #16]
    3106:	681b      	ldr	r3, [r3, #0]
    3108:	9307      	str	r3, [sp, #28]
            printf(MBED_MEM_DEFAULT_TRACER_PREFIX "m:%p;%p-%u\n", res, caller, temp_s1);
    310a:	9b07      	ldr	r3, [sp, #28]
    310c:	9a0a      	ldr	r2, [sp, #40]	; 0x28
    310e:	9902      	ldr	r1, [sp, #8]
    3110:	481f      	ldr	r0, [pc, #124]	; (3190 <mbed_mem_trace_default_callback+0xc0>)
    3112:	f008 fa15 	bl	b540 <printf>
            break;
    3116:	e034      	b.n	3182 <mbed_mem_trace_default_callback+0xb2>

        case MBED_MEM_TRACE_REALLOC:
            temp_ptr = va_arg(va, void *);
    3118:	9b04      	ldr	r3, [sp, #16]
    311a:	1d1a      	adds	r2, r3, #4
    311c:	9204      	str	r2, [sp, #16]
    311e:	681b      	ldr	r3, [r3, #0]
    3120:	9306      	str	r3, [sp, #24]
            temp_s1 = va_arg(va, size_t);
    3122:	9b04      	ldr	r3, [sp, #16]
    3124:	1d1a      	adds	r2, r3, #4
    3126:	9204      	str	r2, [sp, #16]
    3128:	681b      	ldr	r3, [r3, #0]
    312a:	9307      	str	r3, [sp, #28]
            printf(MBED_MEM_DEFAULT_TRACER_PREFIX "r:%p;%p-%p;%u\n", res, caller, temp_ptr, temp_s1);
    312c:	9b07      	ldr	r3, [sp, #28]
    312e:	9300      	str	r3, [sp, #0]
    3130:	9b06      	ldr	r3, [sp, #24]
    3132:	9a0a      	ldr	r2, [sp, #40]	; 0x28
    3134:	9902      	ldr	r1, [sp, #8]
    3136:	4817      	ldr	r0, [pc, #92]	; (3194 <mbed_mem_trace_default_callback+0xc4>)
    3138:	f008 fa02 	bl	b540 <printf>
            break;
    313c:	e021      	b.n	3182 <mbed_mem_trace_default_callback+0xb2>

        case MBED_MEM_TRACE_CALLOC:
            temp_s1 = va_arg(va, size_t);
    313e:	9b04      	ldr	r3, [sp, #16]
    3140:	1d1a      	adds	r2, r3, #4
    3142:	9204      	str	r2, [sp, #16]
    3144:	681b      	ldr	r3, [r3, #0]
    3146:	9307      	str	r3, [sp, #28]
            temp_s2 = va_arg(va, size_t);
    3148:	9b04      	ldr	r3, [sp, #16]
    314a:	1d1a      	adds	r2, r3, #4
    314c:	9204      	str	r2, [sp, #16]
    314e:	681b      	ldr	r3, [r3, #0]
    3150:	9305      	str	r3, [sp, #20]
            printf(MBED_MEM_DEFAULT_TRACER_PREFIX "c:%p;%p-%u;%u\n", res, caller, temp_s1, temp_s2);
    3152:	9b05      	ldr	r3, [sp, #20]
    3154:	9300      	str	r3, [sp, #0]
    3156:	9b07      	ldr	r3, [sp, #28]
    3158:	9a0a      	ldr	r2, [sp, #40]	; 0x28
    315a:	9902      	ldr	r1, [sp, #8]
    315c:	480e      	ldr	r0, [pc, #56]	; (3198 <mbed_mem_trace_default_callback+0xc8>)
    315e:	f008 f9ef 	bl	b540 <printf>
            break;
    3162:	e00e      	b.n	3182 <mbed_mem_trace_default_callback+0xb2>

        case MBED_MEM_TRACE_FREE:
            temp_ptr = va_arg(va, void *);
    3164:	9b04      	ldr	r3, [sp, #16]
    3166:	1d1a      	adds	r2, r3, #4
    3168:	9204      	str	r2, [sp, #16]
    316a:	681b      	ldr	r3, [r3, #0]
    316c:	9306      	str	r3, [sp, #24]
            printf(MBED_MEM_DEFAULT_TRACER_PREFIX "f:%p;%p-%p\n", res, caller, temp_ptr);
    316e:	9b06      	ldr	r3, [sp, #24]
    3170:	9a0a      	ldr	r2, [sp, #40]	; 0x28
    3172:	9902      	ldr	r1, [sp, #8]
    3174:	4809      	ldr	r0, [pc, #36]	; (319c <mbed_mem_trace_default_callback+0xcc>)
    3176:	f008 f9e3 	bl	b540 <printf>
            break;
    317a:	e002      	b.n	3182 <mbed_mem_trace_default_callback+0xb2>

        default:
            printf("?\n");
    317c:	4808      	ldr	r0, [pc, #32]	; (31a0 <mbed_mem_trace_default_callback+0xd0>)
    317e:	f008 f9df 	bl	b540 <printf>
    }
    va_end(va);
}
    3182:	bf00      	nop
    3184:	b009      	add	sp, #36	; 0x24
    3186:	f85d eb04 	ldr.w	lr, [sp], #4
    318a:	b002      	add	sp, #8
    318c:	4770      	bx	lr
    318e:	bf00      	nop
    3190:	00010dc4 	.word	0x00010dc4
    3194:	00010dd4 	.word	0x00010dd4
    3198:	00010de4 	.word	0x00010de4
    319c:	00010df4 	.word	0x00010df4
    31a0:	00010e04 	.word	0x00010e04

000031a4 <_ZL14singleton_lockv>:
{
    31a4:	b508      	push	{r3, lr}
    osMutexAcquire(singleton_mutex_id, osWaitForever);
    31a6:	4b04      	ldr	r3, [pc, #16]	; (31b8 <_ZL14singleton_lockv+0x14>)
    31a8:	681b      	ldr	r3, [r3, #0]
    31aa:	f04f 31ff 	mov.w	r1, #4294967295	; 0xffffffff
    31ae:	4618      	mov	r0, r3
    31b0:	f003 f9ee 	bl	6590 <osMutexAcquire>
}
    31b4:	bf00      	nop
    31b6:	bd08      	pop	{r3, pc}
    31b8:	20001ed0 	.word	0x20001ed0

000031bc <_ZL16singleton_unlockv>:
{
    31bc:	b508      	push	{r3, lr}
    osMutexRelease(singleton_mutex_id);
    31be:	4b03      	ldr	r3, [pc, #12]	; (31cc <_ZL16singleton_unlockv+0x10>)
    31c0:	681b      	ldr	r3, [r3, #0]
    31c2:	4618      	mov	r0, r3
    31c4:	f003 fa12 	bl	65ec <osMutexRelease>
}
    31c8:	bf00      	nop
    31ca:	bd08      	pop	{r3, pc}
    31cc:	20001ed0 	.word	0x20001ed0

000031d0 <_ZN12DirectSerial4seekEli>:
class DirectSerial : public FileHandle {
public:
    DirectSerial(PinName tx, PinName rx, int baud);
    virtual ssize_t write(const void *buffer, size_t size);
    virtual ssize_t read(void *buffer, size_t size);
    virtual off_t seek(off_t offset, int whence = SEEK_SET)
    31d0:	b084      	sub	sp, #16
    31d2:	9003      	str	r0, [sp, #12]
    31d4:	9102      	str	r1, [sp, #8]
    31d6:	9201      	str	r2, [sp, #4]
    {
        return -ESPIPE;
    31d8:	f06f 031c 	mvn.w	r3, #28
    }
    31dc:	4618      	mov	r0, r3
    31de:	b004      	add	sp, #16
    31e0:	4770      	bx	lr

000031e2 <_ZN12DirectSerial4sizeEv>:
    virtual off_t size()
    31e2:	b082      	sub	sp, #8
    31e4:	9001      	str	r0, [sp, #4]
    {
        return -EINVAL;
    31e6:	f06f 0315 	mvn.w	r3, #21
    }
    31ea:	4618      	mov	r0, r3
    31ec:	b002      	add	sp, #8
    31ee:	4770      	bx	lr

000031f0 <_ZN12DirectSerial6isattyEv>:
    virtual int isatty()
    31f0:	b082      	sub	sp, #8
    31f2:	9001      	str	r0, [sp, #4]
    {
        return true;
    31f4:	2301      	movs	r3, #1
    }
    31f6:	4618      	mov	r0, r3
    31f8:	b002      	add	sp, #8
    31fa:	4770      	bx	lr

000031fc <_ZN12DirectSerial5closeEv>:
    virtual int close()
    31fc:	b082      	sub	sp, #8
    31fe:	9001      	str	r0, [sp, #4]
    {
        return 0;
    3200:	2300      	movs	r3, #0
    }
    3202:	4618      	mov	r0, r3
    3204:	b002      	add	sp, #8
    3206:	4770      	bx	lr

00003208 <_ZN12DirectSerialC1E7PinNameS0_i>:
    virtual short poll(short events) const;
};

DirectSerial::DirectSerial(PinName tx, PinName rx, int baud)
    3208:	b500      	push	{lr}
    320a:	b085      	sub	sp, #20
    320c:	9003      	str	r0, [sp, #12]
    320e:	9102      	str	r1, [sp, #8]
    3210:	9201      	str	r2, [sp, #4]
    3212:	9300      	str	r3, [sp, #0]
    3214:	9b03      	ldr	r3, [sp, #12]
    3216:	4618      	mov	r0, r3
    3218:	f7fe fc62 	bl	1ae0 <_ZN4mbed10FileHandleC1Ev>
    321c:	4a0b      	ldr	r2, [pc, #44]	; (324c <_ZN12DirectSerialC1E7PinNameS0_i+0x44>)
    321e:	9b03      	ldr	r3, [sp, #12]
    3220:	601a      	str	r2, [r3, #0]
{
    if (stdio_uart_inited) {
    3222:	4b0b      	ldr	r3, [pc, #44]	; (3250 <_ZN12DirectSerialC1E7PinNameS0_i+0x48>)
    3224:	681b      	ldr	r3, [r3, #0]
    3226:	2b00      	cmp	r3, #0
    3228:	d109      	bne.n	323e <_ZN12DirectSerialC1E7PinNameS0_i+0x36>
        return;
    }
    serial_init(&stdio_uart, tx, rx);
    322a:	9a01      	ldr	r2, [sp, #4]
    322c:	9902      	ldr	r1, [sp, #8]
    322e:	4809      	ldr	r0, [pc, #36]	; (3254 <_ZN12DirectSerialC1E7PinNameS0_i+0x4c>)
    3230:	f006 fba4 	bl	997c <serial_init>
    serial_baud(&stdio_uart, baud);
    3234:	9900      	ldr	r1, [sp, #0]
    3236:	4807      	ldr	r0, [pc, #28]	; (3254 <_ZN12DirectSerialC1E7PinNameS0_i+0x4c>)
    3238:	f006 fc3a 	bl	9ab0 <serial_baud>
    323c:	e000      	b.n	3240 <_ZN12DirectSerialC1E7PinNameS0_i+0x38>
        return;
    323e:	bf00      	nop
#elif CONSOLE_FLOWCONTROL == CONSOLE_FLOWCONTROL_CTS
    serial_set_flow_control(&stdio_uart, FlowControlCTS, NC, STDIO_UART_CTS);
#elif CONSOLE_FLOWCONTROL == CONSOLE_FLOWCONTROL_RTSCTS
    serial_set_flow_control(&stdio_uart, FlowControlRTSCTS, STDIO_UART_RTS, STDIO_UART_CTS);
#endif
}
    3240:	9b03      	ldr	r3, [sp, #12]
    3242:	4618      	mov	r0, r3
    3244:	b005      	add	sp, #20
    3246:	f85d fb04 	ldr.w	pc, [sp], #4
    324a:	bf00      	nop
    324c:	00012584 	.word	0x00012584
    3250:	20001538 	.word	0x20001538
    3254:	20002f6c 	.word	0x20002f6c

00003258 <_ZN12DirectSerial5writeEPKvj>:

ssize_t DirectSerial::write(const void *buffer, size_t size)
{
    3258:	b500      	push	{lr}
    325a:	b087      	sub	sp, #28
    325c:	9003      	str	r0, [sp, #12]
    325e:	9102      	str	r1, [sp, #8]
    3260:	9201      	str	r2, [sp, #4]
    const unsigned char *buf = static_cast<const unsigned char *>(buffer);
    3262:	9b02      	ldr	r3, [sp, #8]
    3264:	9304      	str	r3, [sp, #16]
    for (size_t i = 0; i < size; i++) {
    3266:	2300      	movs	r3, #0
    3268:	9305      	str	r3, [sp, #20]
    326a:	9a05      	ldr	r2, [sp, #20]
    326c:	9b01      	ldr	r3, [sp, #4]
    326e:	429a      	cmp	r2, r3
    3270:	d20b      	bcs.n	328a <_ZN12DirectSerial5writeEPKvj+0x32>
        serial_putc(&stdio_uart, buf[i]);
    3272:	9a04      	ldr	r2, [sp, #16]
    3274:	9b05      	ldr	r3, [sp, #20]
    3276:	4413      	add	r3, r2
    3278:	781b      	ldrb	r3, [r3, #0]
    327a:	4619      	mov	r1, r3
    327c:	4805      	ldr	r0, [pc, #20]	; (3294 <_ZN12DirectSerial5writeEPKvj+0x3c>)
    327e:	f006 fc53 	bl	9b28 <serial_putc>
    for (size_t i = 0; i < size; i++) {
    3282:	9b05      	ldr	r3, [sp, #20]
    3284:	3301      	adds	r3, #1
    3286:	9305      	str	r3, [sp, #20]
    3288:	e7ef      	b.n	326a <_ZN12DirectSerial5writeEPKvj+0x12>
    }
    return size;
    328a:	9b01      	ldr	r3, [sp, #4]
}
    328c:	4618      	mov	r0, r3
    328e:	b007      	add	sp, #28
    3290:	f85d fb04 	ldr.w	pc, [sp], #4
    3294:	20002f6c 	.word	0x20002f6c

00003298 <_ZN12DirectSerial4readEPvj>:

ssize_t DirectSerial::read(void *buffer, size_t size)
{
    3298:	b500      	push	{lr}
    329a:	b087      	sub	sp, #28
    329c:	9003      	str	r0, [sp, #12]
    329e:	9102      	str	r1, [sp, #8]
    32a0:	9201      	str	r2, [sp, #4]
    unsigned char *buf = static_cast<unsigned char *>(buffer);
    32a2:	9b02      	ldr	r3, [sp, #8]
    32a4:	9305      	str	r3, [sp, #20]
    if (size == 0) {
    32a6:	9b01      	ldr	r3, [sp, #4]
    32a8:	2b00      	cmp	r3, #0
    32aa:	d101      	bne.n	32b0 <_ZN12DirectSerial4readEPvj+0x18>
        return 0;
    32ac:	2300      	movs	r3, #0
    32ae:	e007      	b.n	32c0 <_ZN12DirectSerial4readEPvj+0x28>
    }
    buf[0] = serial_getc(&stdio_uart);
    32b0:	4805      	ldr	r0, [pc, #20]	; (32c8 <_ZN12DirectSerial4readEPvj+0x30>)
    32b2:	f006 fc1b 	bl	9aec <serial_getc>
    32b6:	4603      	mov	r3, r0
    32b8:	b2da      	uxtb	r2, r3
    32ba:	9b05      	ldr	r3, [sp, #20]
    32bc:	701a      	strb	r2, [r3, #0]
    return 1;
    32be:	2301      	movs	r3, #1
}
    32c0:	4618      	mov	r0, r3
    32c2:	b007      	add	sp, #28
    32c4:	f85d fb04 	ldr.w	pc, [sp], #4
    32c8:	20002f6c 	.word	0x20002f6c

000032cc <_ZNK12DirectSerial4pollEs>:

short DirectSerial::poll(short events) const
{
    32cc:	b500      	push	{lr}
    32ce:	b085      	sub	sp, #20
    32d0:	9001      	str	r0, [sp, #4]
    32d2:	460b      	mov	r3, r1
    32d4:	f8ad 3002 	strh.w	r3, [sp, #2]
    short revents = 0;
    32d8:	2300      	movs	r3, #0
    32da:	f8ad 300e 	strh.w	r3, [sp, #14]
    if ((events & POLLIN) && serial_readable(&stdio_uart)) {
    32de:	f8bd 3002 	ldrh.w	r3, [sp, #2]
    32e2:	f003 0301 	and.w	r3, r3, #1
    32e6:	2b00      	cmp	r3, #0
    32e8:	d007      	beq.n	32fa <_ZNK12DirectSerial4pollEs+0x2e>
    32ea:	4817      	ldr	r0, [pc, #92]	; (3348 <_ZNK12DirectSerial4pollEs+0x7c>)
    32ec:	f006 fc38 	bl	9b60 <serial_readable>
    32f0:	4603      	mov	r3, r0
    32f2:	2b00      	cmp	r3, #0
    32f4:	d001      	beq.n	32fa <_ZNK12DirectSerial4pollEs+0x2e>
    32f6:	2301      	movs	r3, #1
    32f8:	e000      	b.n	32fc <_ZNK12DirectSerial4pollEs+0x30>
    32fa:	2300      	movs	r3, #0
    32fc:	2b00      	cmp	r3, #0
    32fe:	d005      	beq.n	330c <_ZNK12DirectSerial4pollEs+0x40>
        revents |= POLLIN;
    3300:	f8bd 300e 	ldrh.w	r3, [sp, #14]
    3304:	f043 0301 	orr.w	r3, r3, #1
    3308:	f8ad 300e 	strh.w	r3, [sp, #14]
    }
    if ((events & POLLOUT) && serial_writable(&stdio_uart)) {
    330c:	f8bd 3002 	ldrh.w	r3, [sp, #2]
    3310:	f003 0310 	and.w	r3, r3, #16
    3314:	2b00      	cmp	r3, #0
    3316:	d007      	beq.n	3328 <_ZNK12DirectSerial4pollEs+0x5c>
    3318:	480b      	ldr	r0, [pc, #44]	; (3348 <_ZNK12DirectSerial4pollEs+0x7c>)
    331a:	f006 fc45 	bl	9ba8 <serial_writable>
    331e:	4603      	mov	r3, r0
    3320:	2b00      	cmp	r3, #0
    3322:	d001      	beq.n	3328 <_ZNK12DirectSerial4pollEs+0x5c>
    3324:	2301      	movs	r3, #1
    3326:	e000      	b.n	332a <_ZNK12DirectSerial4pollEs+0x5e>
    3328:	2300      	movs	r3, #0
    332a:	2b00      	cmp	r3, #0
    332c:	d005      	beq.n	333a <_ZNK12DirectSerial4pollEs+0x6e>
        revents |= POLLOUT;
    332e:	f8bd 300e 	ldrh.w	r3, [sp, #14]
    3332:	f043 0310 	orr.w	r3, r3, #16
    3336:	f8ad 300e 	strh.w	r3, [sp, #14]
    }
    return revents;
    333a:	f9bd 300e 	ldrsh.w	r3, [sp, #14]
}
    333e:	4618      	mov	r0, r3
